(VAlabama
p0
(lp1
(lp2
F16.0
aF16.0
aF16.0
aF16.0
aF16.0
aF16.0
aF16.0
aF16.0
aF16.0
aF16.0
aF16.0
aF16.0
aF16.0
aF16.0
aF16.0
aF16.0
aF16.0
aF16.0
aF16.0
aF16.0
aF13.0
aF13.0
aF16.0
aF13.0
aa(lp3
F18.0
aF20.0
aF18.0
aF18.0
aF20.0
aF18.0
aF18.0
aF20.0
aF18.0
aF18.0
aF20.0
aF18.0
aF18.0
aF20.0
aF18.0
aF18.0
aF20.0
aF18.0
aF18.0
aF20.0
aF18.0
aF18.0
aF20.0
aF18.0
aF18.0
aF20.0
aF18.0
aF18.0
aF20.0
aF18.0
aF18.0
aF20.0
aF18.0
aF18.0
aF20.0
aF18.0
aF18.0
aF20.0
aF18.0
aF18.0
aF20.0
aF18.0
aF18.0
aF20.0
aF18.0
aF18.0
aF20.0
aF18.0
aF18.0
aF20.0
aF18.0
aF18.0
aF20.0
aF18.0
aF18.0
aF20.0
aF18.0
aF18.0
aF20.0
aF18.0
aF15.0
aF17.0
aF15.0
aF15.0
aF17.0
aF15.0
aF18.0
aF20.0
aF18.0
aF15.0
aF17.0
aF15.0
aa(lp4
F20.0
aF20.0
aF20.0
aF20.0
aF20.0
aF20.0
aF20.0
aF20.0
aF20.0
aF20.0
aF20.0
aF20.0
aF20.0
aF20.0
aF20.0
aF20.0
aF20.0
aF20.0
aF20.0
aF20.0
aF17.0
aF17.0
aF20.0
aF17.0
aatp5
.