(VAlaska
p0
(lp1
(lp2
F19.52
aF19.52
aF19.52
aF19.52
aF19.52
aF19.52
aF19.52
aF19.52
aF19.52
aF19.52
aF19.52
aF19.52
aF19.52
aF19.52
aF19.52
aF19.52
aF19.52
aF19.52
aF19.52
aF19.52
aF15.86
aF15.86
aF19.52
aF15.86
aa(lp3
F21.96
aF24.4
aF21.96
aF21.96
aF24.4
aF21.96
aF21.96
aF24.4
aF21.96
aF21.96
aF24.4
aF21.96
aF21.96
aF24.4
aF21.96
aF21.96
aF24.4
aF21.96
aF21.96
aF24.4
aF21.96
aF21.96
aF24.4
aF21.96
aF21.96
aF24.4
aF21.96
aF21.96
aF24.4
aF21.96
aF21.96
aF24.4
aF21.96
aF21.96
aF24.4
aF21.96
aF21.96
aF24.4
aF21.96
aF21.96
aF24.4
aF21.96
aF21.96
aF24.4
aF21.96
aF21.96
aF24.4
aF21.96
aF21.96
aF24.4
aF21.96
aF21.96
aF24.4
aF21.96
aF21.96
aF24.4
aF21.96
aF21.96
aF24.4
aF21.96
aF18.3
aF20.74
aF18.3
aF18.3
aF20.74
aF18.3
aF21.96
aF24.4
aF21.96
aF18.3
aF20.74
aF18.3
aa(lp4
F24.4
aF24.4
aF24.4
aF24.4
aF24.4
aF24.4
aF24.4
aF24.4
aF24.4
aF24.4
aF24.4
aF24.4
aF24.4
aF24.4
aF24.4
aF24.4
aF24.4
aF24.4
aF24.4
aF24.4
aF20.74
aF20.74
aF24.4
aF20.74
aatp5
.