(VHawaii
p0
(lp1
(lp2
F21.28
aF21.28
aF21.28
aF21.28
aF21.28
aF21.28
aF21.28
aF21.28
aF21.28
aF21.28
aF21.28
aF21.28
aF21.28
aF21.28
aF21.28
aF21.28
aF21.28
aF21.28
aF21.28
aF21.28
aF17.29
aF17.29
aF21.28
aF17.29
aa(lp3
F23.94
aF26.6
aF23.94
aF23.94
aF26.6
aF23.94
aF23.94
aF26.6
aF23.94
aF23.94
aF26.6
aF23.94
aF23.94
aF26.6
aF23.94
aF23.94
aF26.6
aF23.94
aF23.94
aF26.6
aF23.94
aF23.94
aF26.6
aF23.94
aF23.94
aF26.6
aF23.94
aF23.94
aF26.6
aF23.94
aF23.94
aF26.6
aF23.94
aF23.94
aF26.6
aF23.94
aF23.94
aF26.6
aF23.94
aF23.94
aF26.6
aF23.94
aF23.94
aF26.6
aF23.94
aF23.94
aF26.6
aF23.94
aF23.94
aF26.6
aF23.94
aF23.94
aF26.6
aF23.94
aF23.94
aF26.6
aF23.94
aF23.94
aF26.6
aF23.94
aF19.95
aF22.61
aF19.95
aF19.95
aF22.61
aF19.95
aF23.94
aF26.6
aF23.94
aF19.95
aF22.61
aF19.95
aa(lp4
F26.6
aF26.6
aF26.6
aF26.6
aF26.6
aF26.6
aF26.6
aF26.6
aF26.6
aF26.6
aF26.6
aF26.6
aF26.6
aF26.6
aF26.6
aF26.6
aF26.6
aF26.6
aF26.6
aF26.6
aF22.61
aF22.61
aF26.6
aF22.61
aatp5
.