(VIdaho
p0
(lp1
(lp2
F16.96
aF16.96
aF16.96
aF16.96
aF16.96
aF16.96
aF16.96
aF16.96
aF16.96
aF16.96
aF16.96
aF16.96
aF16.96
aF16.96
aF16.96
aF16.96
aF16.96
aF16.96
aF16.96
aF16.96
aF13.78
aF13.78
aF16.96
aF13.78
aa(lp3
F19.08
aF21.2
aF19.08
aF19.08
aF21.2
aF19.08
aF19.08
aF21.2
aF19.08
aF19.08
aF21.2
aF19.08
aF19.08
aF21.2
aF19.08
aF19.08
aF21.2
aF19.08
aF19.08
aF21.2
aF19.08
aF19.08
aF21.2
aF19.08
aF19.08
aF21.2
aF19.08
aF19.08
aF21.2
aF19.08
aF19.08
aF21.2
aF19.08
aF19.08
aF21.2
aF19.08
aF19.08
aF21.2
aF19.08
aF19.08
aF21.2
aF19.08
aF19.08
aF21.2
aF19.08
aF19.08
aF21.2
aF19.08
aF19.08
aF21.2
aF19.08
aF19.08
aF21.2
aF19.08
aF19.08
aF21.2
aF19.08
aF19.08
aF21.2
aF19.08
aF15.9
aF18.02
aF15.9
aF15.9
aF18.02
aF15.9
aF19.08
aF21.2
aF19.08
aF15.9
aF18.02
aF15.9
aa(lp4
F21.2
aF21.2
aF21.2
aF21.2
aF21.2
aF21.2
aF21.2
aF21.2
aF21.2
aF21.2
aF21.2
aF21.2
aF21.2
aF21.2
aF21.2
aF21.2
aF21.2
aF21.2
aF21.2
aF21.2
aF18.02
aF18.02
aF21.2
aF18.02
aatp5
.