(VIllinois
p0
(lp1
(lp2
F18.24
aF18.24
aF18.24
aF18.24
aF18.24
aF18.24
aF18.24
aF18.24
aF18.24
aF18.24
aF18.24
aF18.24
aF18.24
aF18.24
aF18.24
aF18.24
aF18.24
aF18.24
aF18.24
aF18.24
aF14.82
aF14.82
aF18.24
aF14.82
aa(lp3
F20.52
aF22.8
aF20.52
aF20.52
aF22.8
aF20.52
aF20.52
aF22.8
aF20.52
aF20.52
aF22.8
aF20.52
aF20.52
aF22.8
aF20.52
aF20.52
aF22.8
aF20.52
aF20.52
aF22.8
aF20.52
aF20.52
aF22.8
aF20.52
aF20.52
aF22.8
aF20.52
aF20.52
aF22.8
aF20.52
aF20.52
aF22.8
aF20.52
aF20.52
aF22.8
aF20.52
aF20.52
aF22.8
aF20.52
aF20.52
aF22.8
aF20.52
aF20.52
aF22.8
aF20.52
aF20.52
aF22.8
aF20.52
aF20.52
aF22.8
aF20.52
aF20.52
aF22.8
aF20.52
aF20.52
aF22.8
aF20.52
aF20.52
aF22.8
aF20.52
aF17.1
aF19.38
aF17.1
aF17.1
aF19.38
aF17.1
aF20.52
aF22.8
aF20.52
aF17.1
aF19.38
aF17.1
aa(lp4
F22.8
aF22.8
aF22.8
aF22.8
aF22.8
aF22.8
aF22.8
aF22.8
aF22.8
aF22.8
aF22.8
aF22.8
aF22.8
aF22.8
aF22.8
aF22.8
aF22.8
aF22.8
aF22.8
aF22.8
aF19.38
aF19.38
aF22.8
aF19.38
aatp5
.