(VIowa
p0
(lp1
(lp2
F16.32
aF16.32
aF16.32
aF16.32
aF16.32
aF16.32
aF16.32
aF16.32
aF16.32
aF16.32
aF16.32
aF16.32
aF16.32
aF16.32
aF16.32
aF16.32
aF16.32
aF16.32
aF16.32
aF16.32
aF13.26
aF13.26
aF16.32
aF13.26
aa(lp3
F18.36
aF20.4
aF18.36
aF18.36
aF20.4
aF18.36
aF18.36
aF20.4
aF18.36
aF18.36
aF20.4
aF18.36
aF18.36
aF20.4
aF18.36
aF18.36
aF20.4
aF18.36
aF18.36
aF20.4
aF18.36
aF18.36
aF20.4
aF18.36
aF18.36
aF20.4
aF18.36
aF18.36
aF20.4
aF18.36
aF18.36
aF20.4
aF18.36
aF18.36
aF20.4
aF18.36
aF18.36
aF20.4
aF18.36
aF18.36
aF20.4
aF18.36
aF18.36
aF20.4
aF18.36
aF18.36
aF20.4
aF18.36
aF18.36
aF20.4
aF18.36
aF18.36
aF20.4
aF18.36
aF18.36
aF20.4
aF18.36
aF18.36
aF20.4
aF18.36
aF15.3
aF17.34
aF15.3
aF15.3
aF17.34
aF15.3
aF18.36
aF20.4
aF18.36
aF15.3
aF17.34
aF15.3
aa(lp4
F20.4
aF20.4
aF20.4
aF20.4
aF20.4
aF20.4
aF20.4
aF20.4
aF20.4
aF20.4
aF20.4
aF20.4
aF20.4
aF20.4
aF20.4
aF20.4
aF20.4
aF20.4
aF20.4
aF20.4
aF17.34
aF17.34
aF20.4
aF17.34
aatp5
.