(VKentucky
p0
(lp1
(lp2
F16.16
aF16.16
aF16.16
aF16.16
aF16.16
aF16.16
aF16.16
aF16.16
aF16.16
aF16.16
aF16.16
aF16.16
aF16.16
aF16.16
aF16.16
aF16.16
aF16.16
aF16.16
aF16.16
aF16.16
aF13.13
aF13.13
aF16.16
aF13.13
aa(lp3
F18.18
aF20.2
aF18.18
aF18.18
aF20.2
aF18.18
aF18.18
aF20.2
aF18.18
aF18.18
aF20.2
aF18.18
aF18.18
aF20.2
aF18.18
aF18.18
aF20.2
aF18.18
aF18.18
aF20.2
aF18.18
aF18.18
aF20.2
aF18.18
aF18.18
aF20.2
aF18.18
aF18.18
aF20.2
aF18.18
aF18.18
aF20.2
aF18.18
aF18.18
aF20.2
aF18.18
aF18.18
aF20.2
aF18.18
aF18.18
aF20.2
aF18.18
aF18.18
aF20.2
aF18.18
aF18.18
aF20.2
aF18.18
aF18.18
aF20.2
aF18.18
aF18.18
aF20.2
aF18.18
aF18.18
aF20.2
aF18.18
aF18.18
aF20.2
aF18.18
aF15.15
aF17.17
aF15.15
aF15.15
aF17.17
aF15.15
aF18.18
aF20.2
aF18.18
aF15.15
aF17.17
aF15.15
aa(lp4
F20.2
aF20.2
aF20.2
aF20.2
aF20.2
aF20.2
aF20.2
aF20.2
aF20.2
aF20.2
aF20.2
aF20.2
aF20.2
aF20.2
aF20.2
aF20.2
aF20.2
aF20.2
aF20.2
aF20.2
aF17.17
aF17.17
aF20.2
aF17.17
aatp5
.