(VGeorgia
p0
(lp1
(lp2
F16.64
aF16.64
aF16.64
aF16.64
aF16.64
aF16.64
aF16.64
aF16.64
aF16.64
aF16.64
aF16.64
aF16.64
aF16.64
aF16.64
aF16.64
aF16.64
aF16.64
aF16.64
aF16.64
aF16.64
aF13.52
aF13.52
aF16.64
aF13.52
aa(lp3
F18.72
aF20.8
aF18.72
aF18.72
aF20.8
aF18.72
aF18.72
aF20.8
aF18.72
aF18.72
aF20.8
aF18.72
aF18.72
aF20.8
aF18.72
aF18.72
aF20.8
aF18.72
aF18.72
aF20.8
aF18.72
aF18.72
aF20.8
aF18.72
aF18.72
aF20.8
aF18.72
aF18.72
aF20.8
aF18.72
aF18.72
aF20.8
aF18.72
aF18.72
aF20.8
aF18.72
aF18.72
aF20.8
aF18.72
aF18.72
aF20.8
aF18.72
aF18.72
aF20.8
aF18.72
aF18.72
aF20.8
aF18.72
aF18.72
aF20.8
aF18.72
aF18.72
aF20.8
aF18.72
aF18.72
aF20.8
aF18.72
aF18.72
aF20.8
aF18.72
aF15.6
aF17.68
aF15.6
aF15.6
aF17.68
aF15.6
aF18.72
aF20.8
aF18.72
aF15.6
aF17.68
aF15.6
aa(lp4
F20.8
aF20.8
aF20.8
aF20.8
aF20.8
aF20.8
aF20.8
aF20.8
aF20.8
aF20.8
aF20.8
aF20.8
aF20.8
aF20.8
aF20.8
aF20.8
aF20.8
aF20.8
aF20.8
aF20.8
aF17.68
aF17.68
aF20.8
aF17.68
aatp5
.