(VMaryland
p0
(lp1
(lp2
F20.16
aF20.16
aF20.16
aF20.16
aF20.16
aF20.16
aF20.16
aF20.16
aF20.16
aF20.16
aF20.16
aF20.16
aF20.16
aF20.16
aF20.16
aF20.16
aF20.16
aF20.16
aF20.16
aF20.16
aF16.38
aF16.38
aF20.16
aF16.38
aa(lp3
F22.68
aF25.2
aF22.68
aF22.68
aF25.2
aF22.68
aF22.68
aF25.2
aF22.68
aF22.68
aF25.2
aF22.68
aF22.68
aF25.2
aF22.68
aF22.68
aF25.2
aF22.68
aF22.68
aF25.2
aF22.68
aF22.68
aF25.2
aF22.68
aF22.68
aF25.2
aF22.68
aF22.68
aF25.2
aF22.68
aF22.68
aF25.2
aF22.68
aF22.68
aF25.2
aF22.68
aF22.68
aF25.2
aF22.68
aF22.68
aF25.2
aF22.68
aF22.68
aF25.2
aF22.68
aF22.68
aF25.2
aF22.68
aF22.68
aF25.2
aF22.68
aF22.68
aF25.2
aF22.68
aF22.68
aF25.2
aF22.68
aF22.68
aF25.2
aF22.68
aF18.9
aF21.42
aF18.9
aF18.9
aF21.42
aF18.9
aF22.68
aF25.2
aF22.68
aF18.9
aF21.42
aF18.9
aa(lp4
F25.2
aF25.2
aF25.2
aF25.2
aF25.2
aF25.2
aF25.2
aF25.2
aF25.2
aF25.2
aF25.2
aF25.2
aF25.2
aF25.2
aF25.2
aF25.2
aF25.2
aF25.2
aF25.2
aF25.2
aF21.42
aF21.42
aF25.2
aF21.42
aatp5
.