(VMichigan
p0
(lp1
(lp2
F17.12
aF17.12
aF17.12
aF17.12
aF17.12
aF17.12
aF17.12
aF17.12
aF17.12
aF17.12
aF17.12
aF17.12
aF17.12
aF17.12
aF17.12
aF17.12
aF17.12
aF17.12
aF17.12
aF17.12
aF13.91
aF13.91
aF17.12
aF13.91
aa(lp3
F19.26
aF21.4
aF19.26
aF19.26
aF21.4
aF19.26
aF19.26
aF21.4
aF19.26
aF19.26
aF21.4
aF19.26
aF19.26
aF21.4
aF19.26
aF19.26
aF21.4
aF19.26
aF19.26
aF21.4
aF19.26
aF19.26
aF21.4
aF19.26
aF19.26
aF21.4
aF19.26
aF19.26
aF21.4
aF19.26
aF19.26
aF21.4
aF19.26
aF19.26
aF21.4
aF19.26
aF19.26
aF21.4
aF19.26
aF19.26
aF21.4
aF19.26
aF19.26
aF21.4
aF19.26
aF19.26
aF21.4
aF19.26
aF19.26
aF21.4
aF19.26
aF19.26
aF21.4
aF19.26
aF19.26
aF21.4
aF19.26
aF19.26
aF21.4
aF19.26
aF16.05
aF18.19
aF16.05
aF16.05
aF18.19
aF16.05
aF19.26
aF21.4
aF19.26
aF16.05
aF18.19
aF16.05
aa(lp4
F21.4
aF21.4
aF21.4
aF21.4
aF21.4
aF21.4
aF21.4
aF21.4
aF21.4
aF21.4
aF21.4
aF21.4
aF21.4
aF21.4
aF21.4
aF21.4
aF21.4
aF21.4
aF21.4
aF21.4
aF18.19
aF18.19
aF21.4
aF18.19
aatp5
.