(VMississippi
p0
(lp1
(lp2
F15.68
aF15.68
aF15.68
aF15.68
aF15.68
aF15.68
aF15.68
aF15.68
aF15.68
aF15.68
aF15.68
aF15.68
aF15.68
aF15.68
aF15.68
aF15.68
aF15.68
aF15.68
aF15.68
aF15.68
aF12.74
aF12.74
aF15.68
aF12.74
aa(lp3
F17.64
aF19.6
aF17.64
aF17.64
aF19.6
aF17.64
aF17.64
aF19.6
aF17.64
aF17.64
aF19.6
aF17.64
aF17.64
aF19.6
aF17.64
aF17.64
aF19.6
aF17.64
aF17.64
aF19.6
aF17.64
aF17.64
aF19.6
aF17.64
aF17.64
aF19.6
aF17.64
aF17.64
aF19.6
aF17.64
aF17.64
aF19.6
aF17.64
aF17.64
aF19.6
aF17.64
aF17.64
aF19.6
aF17.64
aF17.64
aF19.6
aF17.64
aF17.64
aF19.6
aF17.64
aF17.64
aF19.6
aF17.64
aF17.64
aF19.6
aF17.64
aF17.64
aF19.6
aF17.64
aF17.64
aF19.6
aF17.64
aF17.64
aF19.6
aF17.64
aF14.7
aF16.66
aF14.7
aF14.7
aF16.66
aF14.7
aF17.64
aF19.6
aF17.64
aF14.7
aF16.66
aF14.7
aa(lp4
F19.6
aF19.6
aF19.6
aF19.6
aF19.6
aF19.6
aF19.6
aF19.6
aF19.6
aF19.6
aF19.6
aF19.6
aF19.6
aF19.6
aF19.6
aF19.6
aF19.6
aF19.6
aF19.6
aF19.6
aF16.66
aF16.66
aF19.6
aF16.66
aatp5
.