(VArizona
p0
(lp1
(lp2
F17.76
aF17.76
aF17.76
aF17.76
aF17.76
aF17.76
aF17.76
aF17.76
aF17.76
aF17.76
aF17.76
aF17.76
aF17.76
aF17.76
aF17.76
aF17.76
aF17.76
aF17.76
aF17.76
aF17.76
aF14.43
aF14.43
aF17.76
aF14.43
aa(lp3
F19.98
aF22.2
aF19.98
aF19.98
aF22.2
aF19.98
aF19.98
aF22.2
aF19.98
aF19.98
aF22.2
aF19.98
aF19.98
aF22.2
aF19.98
aF19.98
aF22.2
aF19.98
aF19.98
aF22.2
aF19.98
aF19.98
aF22.2
aF19.98
aF19.98
aF22.2
aF19.98
aF19.98
aF22.2
aF19.98
aF19.98
aF22.2
aF19.98
aF19.98
aF22.2
aF19.98
aF19.98
aF22.2
aF19.98
aF19.98
aF22.2
aF19.98
aF19.98
aF22.2
aF19.98
aF19.98
aF22.2
aF19.98
aF19.98
aF22.2
aF19.98
aF19.98
aF22.2
aF19.98
aF19.98
aF22.2
aF19.98
aF19.98
aF22.2
aF19.98
aF16.65
aF18.87
aF16.65
aF16.65
aF18.87
aF16.65
aF19.98
aF22.2
aF19.98
aF16.65
aF18.87
aF16.65
aa(lp4
F22.2
aF22.2
aF22.2
aF22.2
aF22.2
aF22.2
aF22.2
aF22.2
aF22.2
aF22.2
aF22.2
aF22.2
aF22.2
aF22.2
aF22.2
aF22.2
aF22.2
aF22.2
aF22.2
aF22.2
aF18.87
aF18.87
aF22.2
aF18.87
aatp5
.