(VNew Hampshire
p0
(lp1
(lp2
F19.36
aF19.36
aF19.36
aF19.36
aF19.36
aF19.36
aF19.36
aF19.36
aF19.36
aF19.36
aF19.36
aF19.36
aF19.36
aF19.36
aF19.36
aF19.36
aF19.36
aF19.36
aF19.36
aF19.36
aF15.73
aF15.73
aF19.36
aF15.73
aa(lp3
F21.78
aF24.2
aF21.78
aF21.78
aF24.2
aF21.78
aF21.78
aF24.2
aF21.78
aF21.78
aF24.2
aF21.78
aF21.78
aF24.2
aF21.78
aF21.78
aF24.2
aF21.78
aF21.78
aF24.2
aF21.78
aF21.78
aF24.2
aF21.78
aF21.78
aF24.2
aF21.78
aF21.78
aF24.2
aF21.78
aF21.78
aF24.2
aF21.78
aF21.78
aF24.2
aF21.78
aF21.78
aF24.2
aF21.78
aF21.78
aF24.2
aF21.78
aF21.78
aF24.2
aF21.78
aF21.78
aF24.2
aF21.78
aF21.78
aF24.2
aF21.78
aF21.78
aF24.2
aF21.78
aF21.78
aF24.2
aF21.78
aF21.78
aF24.2
aF21.78
aF18.15
aF20.57
aF18.15
aF18.15
aF20.57
aF18.15
aF21.78
aF24.2
aF21.78
aF18.15
aF20.57
aF18.15
aa(lp4
F24.2
aF24.2
aF24.2
aF24.2
aF24.2
aF24.2
aF24.2
aF24.2
aF24.2
aF24.2
aF24.2
aF24.2
aF24.2
aF24.2
aF24.2
aF24.2
aF24.2
aF24.2
aF24.2
aF24.2
aF20.57
aF20.57
aF24.2
aF20.57
aatp5
.