(VArkansas
p0
(lp1
(lp2
F15.84
aF15.84
aF15.84
aF15.84
aF15.84
aF15.84
aF15.84
aF15.84
aF15.84
aF15.84
aF15.84
aF15.84
aF15.84
aF15.84
aF15.84
aF15.84
aF15.84
aF15.84
aF15.84
aF15.84
aF12.87
aF12.87
aF15.84
aF12.87
aa(lp3
F17.82
aF19.8
aF17.82
aF17.82
aF19.8
aF17.82
aF17.82
aF19.8
aF17.82
aF17.82
aF19.8
aF17.82
aF17.82
aF19.8
aF17.82
aF17.82
aF19.8
aF17.82
aF17.82
aF19.8
aF17.82
aF17.82
aF19.8
aF17.82
aF17.82
aF19.8
aF17.82
aF17.82
aF19.8
aF17.82
aF17.82
aF19.8
aF17.82
aF17.82
aF19.8
aF17.82
aF17.82
aF19.8
aF17.82
aF17.82
aF19.8
aF17.82
aF17.82
aF19.8
aF17.82
aF17.82
aF19.8
aF17.82
aF17.82
aF19.8
aF17.82
aF17.82
aF19.8
aF17.82
aF17.82
aF19.8
aF17.82
aF17.82
aF19.8
aF17.82
aF14.85
aF16.83
aF14.85
aF14.85
aF16.83
aF14.85
aF17.82
aF19.8
aF17.82
aF14.85
aF16.83
aF14.85
aa(lp4
F19.8
aF19.8
aF19.8
aF19.8
aF19.8
aF19.8
aF19.8
aF19.8
aF19.8
aF19.8
aF19.8
aF19.8
aF19.8
aF19.8
aF19.8
aF19.8
aF19.8
aF19.8
aF19.8
aF19.8
aF16.83
aF16.83
aF19.8
aF16.83
aatp5
.