(VNew Jersey
p0
(lp1
(lp2
F20.8
aF20.8
aF20.8
aF20.8
aF20.8
aF20.8
aF20.8
aF20.8
aF20.8
aF20.8
aF20.8
aF20.8
aF20.8
aF20.8
aF20.8
aF20.8
aF20.8
aF20.8
aF20.8
aF20.8
aF16.9
aF16.9
aF20.8
aF16.9
aa(lp3
F23.4
aF26.0
aF23.4
aF23.4
aF26.0
aF23.4
aF23.4
aF26.0
aF23.4
aF23.4
aF26.0
aF23.4
aF23.4
aF26.0
aF23.4
aF23.4
aF26.0
aF23.4
aF23.4
aF26.0
aF23.4
aF23.4
aF26.0
aF23.4
aF23.4
aF26.0
aF23.4
aF23.4
aF26.0
aF23.4
aF23.4
aF26.0
aF23.4
aF23.4
aF26.0
aF23.4
aF23.4
aF26.0
aF23.4
aF23.4
aF26.0
aF23.4
aF23.4
aF26.0
aF23.4
aF23.4
aF26.0
aF23.4
aF23.4
aF26.0
aF23.4
aF23.4
aF26.0
aF23.4
aF23.4
aF26.0
aF23.4
aF23.4
aF26.0
aF23.4
aF19.5
aF22.1
aF19.5
aF19.5
aF22.1
aF19.5
aF23.4
aF26.0
aF23.4
aF19.5
aF22.1
aF19.5
aa(lp4
F26.0
aF26.0
aF26.0
aF26.0
aF26.0
aF26.0
aF26.0
aF26.0
aF26.0
aF26.0
aF26.0
aF26.0
aF26.0
aF26.0
aF26.0
aF26.0
aF26.0
aF26.0
aF26.0
aF26.0
aF22.1
aF22.1
aF26.0
aF22.1
aatp5
.