(VNew Mexico
p0
(lp1
(lp2
F17.28
aF17.28
aF17.28
aF17.28
aF17.28
aF17.28
aF17.28
aF17.28
aF17.28
aF17.28
aF17.28
aF17.28
aF17.28
aF17.28
aF17.28
aF17.28
aF17.28
aF17.28
aF17.28
aF17.28
aF14.04
aF14.04
aF17.28
aF14.04
aa(lp3
F19.44
aF21.6
aF19.44
aF19.44
aF21.6
aF19.44
aF19.44
aF21.6
aF19.44
aF19.44
aF21.6
aF19.44
aF19.44
aF21.6
aF19.44
aF19.44
aF21.6
aF19.44
aF19.44
aF21.6
aF19.44
aF19.44
aF21.6
aF19.44
aF19.44
aF21.6
aF19.44
aF19.44
aF21.6
aF19.44
aF19.44
aF21.6
aF19.44
aF19.44
aF21.6
aF19.44
aF19.44
aF21.6
aF19.44
aF19.44
aF21.6
aF19.44
aF19.44
aF21.6
aF19.44
aF19.44
aF21.6
aF19.44
aF19.44
aF21.6
aF19.44
aF19.44
aF21.6
aF19.44
aF19.44
aF21.6
aF19.44
aF19.44
aF21.6
aF19.44
aF16.2
aF18.36
aF16.2
aF16.2
aF18.36
aF16.2
aF19.44
aF21.6
aF19.44
aF16.2
aF18.36
aF16.2
aa(lp4
F21.6
aF21.6
aF21.6
aF21.6
aF21.6
aF21.6
aF21.6
aF21.6
aF21.6
aF21.6
aF21.6
aF21.6
aF21.6
aF21.6
aF21.6
aF21.6
aF21.6
aF21.6
aF21.6
aF21.6
aF18.36
aF18.36
aF21.6
aF18.36
aatp5
.