(VNew York
p0
(lp1
(lp2
F20.96
aF20.96
aF20.96
aF20.96
aF20.96
aF20.96
aF20.96
aF20.96
aF20.96
aF20.96
aF20.96
aF20.96
aF20.96
aF20.96
aF20.96
aF20.96
aF20.96
aF20.96
aF20.96
aF20.96
aF17.03
aF17.03
aF20.96
aF17.03
aa(lp3
F23.58
aF26.2
aF23.58
aF23.58
aF26.2
aF23.58
aF23.58
aF26.2
aF23.58
aF23.58
aF26.2
aF23.58
aF23.58
aF26.2
aF23.58
aF23.58
aF26.2
aF23.58
aF23.58
aF26.2
aF23.58
aF23.58
aF26.2
aF23.58
aF23.58
aF26.2
aF23.58
aF23.58
aF26.2
aF23.58
aF23.58
aF26.2
aF23.58
aF23.58
aF26.2
aF23.58
aF23.58
aF26.2
aF23.58
aF23.58
aF26.2
aF23.58
aF23.58
aF26.2
aF23.58
aF23.58
aF26.2
aF23.58
aF23.58
aF26.2
aF23.58
aF23.58
aF26.2
aF23.58
aF23.58
aF26.2
aF23.58
aF23.58
aF26.2
aF23.58
aF19.65
aF22.27
aF19.65
aF19.65
aF22.27
aF19.65
aF23.58
aF26.2
aF23.58
aF19.65
aF22.27
aF19.65
aa(lp4
F26.2
aF26.2
aF26.2
aF26.2
aF26.2
aF26.2
aF26.2
aF26.2
aF26.2
aF26.2
aF26.2
aF26.2
aF26.2
aF26.2
aF26.2
aF26.2
aF26.2
aF26.2
aF26.2
aF26.2
aF22.27
aF22.27
aF26.2
aF22.27
aatp5
.