(VCalifornia
p0
(lp1
(lp2
F20.48
aF20.48
aF20.48
aF20.48
aF20.48
aF20.48
aF20.48
aF20.48
aF20.48
aF20.48
aF20.48
aF20.48
aF20.48
aF20.48
aF20.48
aF20.48
aF20.48
aF20.48
aF20.48
aF20.48
aF16.64
aF16.64
aF20.48
aF16.64
aa(lp3
F23.04
aF25.6
aF23.04
aF23.04
aF25.6
aF23.04
aF23.04
aF25.6
aF23.04
aF23.04
aF25.6
aF23.04
aF23.04
aF25.6
aF23.04
aF23.04
aF25.6
aF23.04
aF23.04
aF25.6
aF23.04
aF23.04
aF25.6
aF23.04
aF23.04
aF25.6
aF23.04
aF23.04
aF25.6
aF23.04
aF23.04
aF25.6
aF23.04
aF23.04
aF25.6
aF23.04
aF23.04
aF25.6
aF23.04
aF23.04
aF25.6
aF23.04
aF23.04
aF25.6
aF23.04
aF23.04
aF25.6
aF23.04
aF23.04
aF25.6
aF23.04
aF23.04
aF25.6
aF23.04
aF23.04
aF25.6
aF23.04
aF23.04
aF25.6
aF23.04
aF19.2
aF21.76
aF19.2
aF19.2
aF21.76
aF19.2
aF23.04
aF25.6
aF23.04
aF19.2
aF21.76
aF19.2
aa(lp4
F25.6
aF25.6
aF25.6
aF25.6
aF25.6
aF25.6
aF25.6
aF25.6
aF25.6
aF25.6
aF25.6
aF25.6
aF25.6
aF25.6
aF25.6
aF25.6
aF25.6
aF25.6
aF25.6
aF25.6
aF21.76
aF21.76
aF25.6
aF21.76
aatp5
.