(VIndiana
p0
(lp1
(lp2
F16.48
aF16.48
aF16.48
aF16.48
aF16.48
aF16.48
aF16.48
aF16.48
aF16.48
aF16.48
aF16.48
aF16.48
aF16.48
aF16.48
aF16.48
aF16.48
aF16.48
aF16.48
aF16.48
aF16.48
aF13.39
aF13.39
aF16.48
aF13.39
aa(lp3
F18.54
aF20.6
aF18.54
aF18.54
aF20.6
aF18.54
aF18.54
aF20.6
aF18.54
aF18.54
aF20.6
aF18.54
aF18.54
aF20.6
aF18.54
aF18.54
aF20.6
aF18.54
aF18.54
aF20.6
aF18.54
aF18.54
aF20.6
aF18.54
aF18.54
aF20.6
aF18.54
aF18.54
aF20.6
aF18.54
aF18.54
aF20.6
aF18.54
aF18.54
aF20.6
aF18.54
aF18.54
aF20.6
aF18.54
aF18.54
aF20.6
aF18.54
aF18.54
aF20.6
aF18.54
aF18.54
aF20.6
aF18.54
aF18.54
aF20.6
aF18.54
aF18.54
aF20.6
aF18.54
aF18.54
aF20.6
aF18.54
aF18.54
aF20.6
aF18.54
aF15.45
aF17.51
aF15.45
aF15.45
aF17.51
aF15.45
aF18.54
aF20.6
aF18.54
aF15.45
aF17.51
aF15.45
aa(lp4
F20.6
aF20.6
aF20.6
aF20.6
aF20.6
aF20.6
aF20.6
aF20.6
aF20.6
aF20.6
aF20.6
aF20.6
aF20.6
aF20.6
aF20.6
aF20.6
aF20.6
aF20.6
aF20.6
aF20.6
aF17.51
aF17.51
aF20.6
aF17.51
aatp5
.