(VTexas
p0
(lp1
(lp2
F17.6
aF17.6
aF17.6
aF17.6
aF17.6
aF17.6
aF17.6
aF17.6
aF17.6
aF17.6
aF17.6
aF17.6
aF17.6
aF17.6
aF17.6
aF17.6
aF17.6
aF17.6
aF17.6
aF17.6
aF14.3
aF14.3
aF17.6
aF14.3
aa(lp3
F19.8
aF22.0
aF19.8
aF19.8
aF22.0
aF19.8
aF19.8
aF22.0
aF19.8
aF19.8
aF22.0
aF19.8
aF19.8
aF22.0
aF19.8
aF19.8
aF22.0
aF19.8
aF19.8
aF22.0
aF19.8
aF19.8
aF22.0
aF19.8
aF19.8
aF22.0
aF19.8
aF19.8
aF22.0
aF19.8
aF19.8
aF22.0
aF19.8
aF19.8
aF22.0
aF19.8
aF19.8
aF22.0
aF19.8
aF19.8
aF22.0
aF19.8
aF19.8
aF22.0
aF19.8
aF19.8
aF22.0
aF19.8
aF19.8
aF22.0
aF19.8
aF19.8
aF22.0
aF19.8
aF19.8
aF22.0
aF19.8
aF19.8
aF22.0
aF19.8
aF16.5
aF18.7
aF16.5
aF16.5
aF18.7
aF16.5
aF19.8
aF22.0
aF19.8
aF16.5
aF18.7
aF16.5
aa(lp4
F22.0
aF22.0
aF22.0
aF22.0
aF22.0
aF22.0
aF22.0
aF22.0
aF22.0
aF22.0
aF22.0
aF22.0
aF22.0
aF22.0
aF22.0
aF22.0
aF22.0
aF22.0
aF22.0
aF22.0
aF18.7
aF18.7
aF22.0
aF18.7
aatp5
.