(VColorado
p0
(lp1
(lp2
F18.4
aF18.4
aF18.4
aF18.4
aF18.4
aF18.4
aF18.4
aF18.4
aF18.4
aF18.4
aF18.4
aF18.4
aF18.4
aF18.4
aF18.4
aF18.4
aF18.4
aF18.4
aF18.4
aF18.4
aF14.95
aF14.95
aF18.4
aF14.95
aa(lp3
F20.7
aF23.0
aF20.7
aF20.7
aF23.0
aF20.7
aF20.7
aF23.0
aF20.7
aF20.7
aF23.0
aF20.7
aF20.7
aF23.0
aF20.7
aF20.7
aF23.0
aF20.7
aF20.7
aF23.0
aF20.7
aF20.7
aF23.0
aF20.7
aF20.7
aF23.0
aF20.7
aF20.7
aF23.0
aF20.7
aF20.7
aF23.0
aF20.7
aF20.7
aF23.0
aF20.7
aF20.7
aF23.0
aF20.7
aF20.7
aF23.0
aF20.7
aF20.7
aF23.0
aF20.7
aF20.7
aF23.0
aF20.7
aF20.7
aF23.0
aF20.7
aF20.7
aF23.0
aF20.7
aF20.7
aF23.0
aF20.7
aF20.7
aF23.0
aF20.7
aF17.25
aF19.55
aF17.25
aF17.25
aF19.55
aF17.25
aF20.7
aF23.0
aF20.7
aF17.25
aF19.55
aF17.25
aa(lp4
F23.0
aF23.0
aF23.0
aF23.0
aF23.0
aF23.0
aF23.0
aF23.0
aF23.0
aF23.0
aF23.0
aF23.0
aF23.0
aF23.0
aF23.0
aF23.0
aF23.0
aF23.0
aF23.0
aF23.0
aF19.55
aF19.55
aF23.0
aF19.55
aatp5
.