(VVirginia
p0
(lp1
(lp2
F18.72
aF18.72
aF18.72
aF18.72
aF18.72
aF18.72
aF18.72
aF18.72
aF18.72
aF18.72
aF18.72
aF18.72
aF18.72
aF18.72
aF18.72
aF18.72
aF18.72
aF18.72
aF18.72
aF18.72
aF15.21
aF15.21
aF18.72
aF15.21
aa(lp3
F21.06
aF23.4
aF21.06
aF21.06
aF23.4
aF21.06
aF21.06
aF23.4
aF21.06
aF21.06
aF23.4
aF21.06
aF21.06
aF23.4
aF21.06
aF21.06
aF23.4
aF21.06
aF21.06
aF23.4
aF21.06
aF21.06
aF23.4
aF21.06
aF21.06
aF23.4
aF21.06
aF21.06
aF23.4
aF21.06
aF21.06
aF23.4
aF21.06
aF21.06
aF23.4
aF21.06
aF21.06
aF23.4
aF21.06
aF21.06
aF23.4
aF21.06
aF21.06
aF23.4
aF21.06
aF21.06
aF23.4
aF21.06
aF21.06
aF23.4
aF21.06
aF21.06
aF23.4
aF21.06
aF21.06
aF23.4
aF21.06
aF21.06
aF23.4
aF21.06
aF17.55
aF19.89
aF17.55
aF17.55
aF19.89
aF17.55
aF21.06
aF23.4
aF21.06
aF17.55
aF19.89
aF17.55
aa(lp4
F23.4
aF23.4
aF23.4
aF23.4
aF23.4
aF23.4
aF23.4
aF23.4
aF23.4
aF23.4
aF23.4
aF23.4
aF23.4
aF23.4
aF23.4
aF23.4
aF23.4
aF23.4
aF23.4
aF23.4
aF19.89
aF19.89
aF23.4
aF19.89
aatp5
.