(VWisconsin
p0
(lp1
(lp2
F16.8
aF16.8
aF16.8
aF16.8
aF16.8
aF16.8
aF16.8
aF16.8
aF16.8
aF16.8
aF16.8
aF16.8
aF16.8
aF16.8
aF16.8
aF16.8
aF16.8
aF16.8
aF16.8
aF16.8
aF13.65
aF13.65
aF16.8
aF13.65
aa(lp3
F18.9
aF21.0
aF18.9
aF18.9
aF21.0
aF18.9
aF18.9
aF21.0
aF18.9
aF18.9
aF21.0
aF18.9
aF18.9
aF21.0
aF18.9
aF18.9
aF21.0
aF18.9
aF18.9
aF21.0
aF18.9
aF18.9
aF21.0
aF18.9
aF18.9
aF21.0
aF18.9
aF18.9
aF21.0
aF18.9
aF18.9
aF21.0
aF18.9
aF18.9
aF21.0
aF18.9
aF18.9
aF21.0
aF18.9
aF18.9
aF21.0
aF18.9
aF18.9
aF21.0
aF18.9
aF18.9
aF21.0
aF18.9
aF18.9
aF21.0
aF18.9
aF18.9
aF21.0
aF18.9
aF18.9
aF21.0
aF18.9
aF18.9
aF21.0
aF18.9
aF15.75
aF17.85
aF15.75
aF15.75
aF17.85
aF15.75
aF18.9
aF21.0
aF18.9
aF15.75
aF17.85
aF15.75
aa(lp4
F21.0
aF21.0
aF21.0
aF21.0
aF21.0
aF21.0
aF21.0
aF21.0
aF21.0
aF21.0
aF21.0
aF21.0
aF21.0
aF21.0
aF21.0
aF21.0
aF21.0
aF21.0
aF21.0
aF21.0
aF17.85
aF17.85
aF21.0
aF17.85
aatp5
.