(VWyoming
p0
(lp1
(lp2
F17.44
aF17.44
aF17.44
aF17.44
aF17.44
aF17.44
aF17.44
aF17.44
aF17.44
aF17.44
aF17.44
aF17.44
aF17.44
aF17.44
aF17.44
aF17.44
aF17.44
aF17.44
aF17.44
aF17.44
aF14.17
aF14.17
aF17.44
aF14.17
aa(lp3
F19.62
aF21.8
aF19.62
aF19.62
aF21.8
aF19.62
aF19.62
aF21.8
aF19.62
aF19.62
aF21.8
aF19.62
aF19.62
aF21.8
aF19.62
aF19.62
aF21.8
aF19.62
aF19.62
aF21.8
aF19.62
aF19.62
aF21.8
aF19.62
aF19.62
aF21.8
aF19.62
aF19.62
aF21.8
aF19.62
aF19.62
aF21.8
aF19.62
aF19.62
aF21.8
aF19.62
aF19.62
aF21.8
aF19.62
aF19.62
aF21.8
aF19.62
aF19.62
aF21.8
aF19.62
aF19.62
aF21.8
aF19.62
aF19.62
aF21.8
aF19.62
aF19.62
aF21.8
aF19.62
aF19.62
aF21.8
aF19.62
aF19.62
aF21.8
aF19.62
aF16.35
aF18.53
aF16.35
aF16.35
aF18.53
aF16.35
aF19.62
aF21.8
aF19.62
aF16.35
aF18.53
aF16.35
aa(lp4
F21.8
aF21.8
aF21.8
aF21.8
aF21.8
aF21.8
aF21.8
aF21.8
aF21.8
aF21.8
aF21.8
aF21.8
aF21.8
aF21.8
aF21.8
aF21.8
aF21.8
aF21.8
aF21.8
aF21.8
aF18.53
aF18.53
aF21.8
aF18.53
aatp5
.