(VConnecticut
p0
(lp1
(lp2
F19.84
aF19.84
aF19.84
aF19.84
aF19.84
aF19.84
aF19.84
aF19.84
aF19.84
aF19.84
aF19.84
aF19.84
aF19.84
aF19.84
aF19.84
aF19.84
aF19.84
aF19.84
aF19.84
aF19.84
aF16.12
aF16.12
aF19.84
aF16.12
aa(lp3
F22.32
aF24.8
aF22.32
aF22.32
aF24.8
aF22.32
aF22.32
aF24.8
aF22.32
aF22.32
aF24.8
aF22.32
aF22.32
aF24.8
aF22.32
aF22.32
aF24.8
aF22.32
aF22.32
aF24.8
aF22.32
aF22.32
aF24.8
aF22.32
aF22.32
aF24.8
aF22.32
aF22.32
aF24.8
aF22.32
aF22.32
aF24.8
aF22.32
aF22.32
aF24.8
aF22.32
aF22.32
aF24.8
aF22.32
aF22.32
aF24.8
aF22.32
aF22.32
aF24.8
aF22.32
aF22.32
aF24.8
aF22.32
aF22.32
aF24.8
aF22.32
aF22.32
aF24.8
aF22.32
aF22.32
aF24.8
aF22.32
aF22.32
aF24.8
aF22.32
aF18.6
aF21.08
aF18.6
aF18.6
aF21.08
aF18.6
aF22.32
aF24.8
aF22.32
aF18.6
aF21.08
aF18.6
aa(lp4
F24.8
aF24.8
aF24.8
aF24.8
aF24.8
aF24.8
aF24.8
aF24.8
aF24.8
aF24.8
aF24.8
aF24.8
aF24.8
aF24.8
aF24.8
aF24.8
aF24.8
aF24.8
aF24.8
aF24.8
aF21.08
aF21.08
aF24.8
aF21.08
aatp5
.