(VDelaware
p0
(lp1
(lp2
F18.56
aF18.56
aF18.56
aF18.56
aF18.56
aF18.56
aF18.56
aF18.56
aF18.56
aF18.56
aF18.56
aF18.56
aF18.56
aF18.56
aF18.56
aF18.56
aF18.56
aF18.56
aF18.56
aF18.56
aF15.08
aF15.08
aF18.56
aF15.08
aa(lp3
F20.88
aF23.2
aF20.88
aF20.88
aF23.2
aF20.88
aF20.88
aF23.2
aF20.88
aF20.88
aF23.2
aF20.88
aF20.88
aF23.2
aF20.88
aF20.88
aF23.2
aF20.88
aF20.88
aF23.2
aF20.88
aF20.88
aF23.2
aF20.88
aF20.88
aF23.2
aF20.88
aF20.88
aF23.2
aF20.88
aF20.88
aF23.2
aF20.88
aF20.88
aF23.2
aF20.88
aF20.88
aF23.2
aF20.88
aF20.88
aF23.2
aF20.88
aF20.88
aF23.2
aF20.88
aF20.88
aF23.2
aF20.88
aF20.88
aF23.2
aF20.88
aF20.88
aF23.2
aF20.88
aF20.88
aF23.2
aF20.88
aF20.88
aF23.2
aF20.88
aF17.4
aF19.72
aF17.4
aF17.4
aF19.72
aF17.4
aF20.88
aF23.2
aF20.88
aF17.4
aF19.72
aF17.4
aa(lp4
F23.2
aF23.2
aF23.2
aF23.2
aF23.2
aF23.2
aF23.2
aF23.2
aF23.2
aF23.2
aF23.2
aF23.2
aF23.2
aF23.2
aF23.2
aF23.2
aF23.2
aF23.2
aF23.2
aF23.2
aF19.72
aF19.72
aF23.2
aF19.72
aatp5
.