(VDistrict of Columbia
p0
(lp1
(lp2
F21.44
aF21.44
aF21.44
aF21.44
aF21.44
aF21.44
aF21.44
aF21.44
aF21.44
aF21.44
aF21.44
aF21.44
aF21.44
aF21.44
aF21.44
aF21.44
aF21.44
aF21.44
aF21.44
aF21.44
aF17.42
aF17.42
aF21.44
aF17.42
aa(lp3
F24.12
aF26.8
aF24.12
aF24.12
aF26.8
aF24.12
aF24.12
aF26.8
aF24.12
aF24.12
aF26.8
aF24.12
aF24.12
aF26.8
aF24.12
aF24.12
aF26.8
aF24.12
aF24.12
aF26.8
aF24.12
aF24.12
aF26.8
aF24.12
aF24.12
aF26.8
aF24.12
aF24.12
aF26.8
aF24.12
aF24.12
aF26.8
aF24.12
aF24.12
aF26.8
aF24.12
aF24.12
aF26.8
aF24.12
aF24.12
aF26.8
aF24.12
aF24.12
aF26.8
aF24.12
aF24.12
aF26.8
aF24.12
aF24.12
aF26.8
aF24.12
aF24.12
aF26.8
aF24.12
aF24.12
aF26.8
aF24.12
aF24.12
aF26.8
aF24.12
aF20.1
aF22.78
aF20.1
aF20.1
aF22.78
aF20.1
aF24.12
aF26.8
aF24.12
aF20.1
aF22.78
aF20.1
aa(lp4
F26.8
aF26.8
aF26.8
aF26.8
aF26.8
aF26.8
aF26.8
aF26.8
aF26.8
aF26.8
aF26.8
aF26.8
aF26.8
aF26.8
aF26.8
aF26.8
aF26.8
aF26.8
aF26.8
aF26.8
aF22.78
aF22.78
aF26.8
aF22.78
aatp5
.