(VFlorida
p0
(lp1
(lp2
F17.92
aF17.92
aF17.92
aF17.92
aF17.92
aF17.92
aF17.92
aF17.92
aF17.92
aF17.92
aF17.92
aF17.92
aF17.92
aF17.92
aF17.92
aF17.92
aF17.92
aF17.92
aF17.92
aF17.92
aF14.56
aF14.56
aF17.92
aF14.56
aa(lp3
F20.16
aF22.4
aF20.16
aF20.16
aF22.4
aF20.16
aF20.16
aF22.4
aF20.16
aF20.16
aF22.4
aF20.16
aF20.16
aF22.4
aF20.16
aF20.16
aF22.4
aF20.16
aF20.16
aF22.4
aF20.16
aF20.16
aF22.4
aF20.16
aF20.16
aF22.4
aF20.16
aF20.16
aF22.4
aF20.16
aF20.16
aF22.4
aF20.16
aF20.16
aF22.4
aF20.16
aF20.16
aF22.4
aF20.16
aF20.16
aF22.4
aF20.16
aF20.16
aF22.4
aF20.16
aF20.16
aF22.4
aF20.16
aF20.16
aF22.4
aF20.16
aF20.16
aF22.4
aF20.16
aF20.16
aF22.4
aF20.16
aF20.16
aF22.4
aF20.16
aF16.8
aF19.04
aF16.8
aF16.8
aF19.04
aF16.8
aF20.16
aF22.4
aF20.16
aF16.8
aF19.04
aF16.8
aa(lp4
F22.4
aF22.4
aF22.4
aF22.4
aF22.4
aF22.4
aF22.4
aF22.4
aF22.4
aF22.4
aF22.4
aF22.4
aF22.4
aF22.4
aF22.4
aF22.4
aF22.4
aF22.4
aF22.4
aF22.4
aF19.04
aF19.04
aF22.4
aF19.04
aatp5
.