(VGeorgia
p0
(lp1
(lp2
F15.59
aF12.47
aF15.59
aF12.47
aF15.59
aF12.47
aF15.59
aF12.47
aF15.59
aF12.47
aF15.59
aF12.47
aF15.59
aF12.47
aF15.59
aF12.47
aF15.59
aF12.47
aF15.59
aF12.47
aF15.59
aF12.47
aF15.59
aF12.47
aF15.59
aF12.47
aF15.59
aF12.47
aF15.59
aF12.47
aF9.35
aF6.23
aF6.23
aa(lp3
F14.55
aF14.55
aF14.55
aF16.11
aF14.55
aF16.11
aF14.55
aF16.11
aF14.55
aF14.55
aF14.55
aF14.55
aF14.55
aF14.55
aF14.55
aF14.55
aF14.55
aF14.55
aF8.31
aF8.31
aF8.31
aa(lp4
F16.63
aF16.63
aF16.63
aF16.63
aF16.63
aF16.63
aF16.63
aF15.99
aF16.63
aF16.63
aF16.63
aF16.63
aF16.63
aF16.63
aF16.63
aF10.39
aF10.39
aF10.39
aa(lp5
F18.71
aF18.71
aF18.71
aF18.71
aF18.71
aF18.71
aF18.71
aF18.71
aF18.71
aF18.71
aF18.71
aF18.71
aF18.71
aF18.71
aF18.71
aF12.47
aatp6
.