(VHawaii
p0
(lp1
(lp2
F19.94
aF15.95
aF19.94
aF15.95
aF19.94
aF15.95
aF19.94
aF15.95
aF19.94
aF15.95
aF19.94
aF15.95
aF19.94
aF15.95
aF19.94
aF15.95
aF19.94
aF15.95
aF19.94
aF15.95
aF19.94
aF15.95
aF19.94
aF15.95
aF19.94
aF15.95
aF19.94
aF15.95
aF19.94
aF15.95
aF11.96
aF7.97
aF7.97
aa(lp3
F18.61
aF18.61
aF18.61
aF20.6
aF18.61
aF20.6
aF18.61
aF20.6
aF18.61
aF18.61
aF18.61
aF18.61
aF18.61
aF18.61
aF18.61
aF18.61
aF18.61
aF18.61
aF10.63
aF10.63
aF10.63
aa(lp4
F21.27
aF21.27
aF21.27
aF21.27
aF21.27
aF21.27
aF21.27
aF15.99
aF21.27
aF21.27
aF21.27
aF21.27
aF21.27
aF21.27
aF21.27
aF13.29
aF13.29
aF13.29
aa(lp5
F23.93
aF23.93
aF23.93
aF23.93
aF23.93
aF23.93
aF23.93
aF23.93
aF23.93
aF23.93
aF23.93
aF23.93
aF23.93
aF23.93
aF23.93
aF15.95
aatp6
.