(VIdaho
p0
(lp1
(lp2
F15.89
aF12.71
aF15.89
aF12.71
aF15.89
aF12.71
aF15.89
aF12.71
aF15.89
aF12.71
aF15.89
aF12.71
aF15.89
aF12.71
aF15.89
aF12.71
aF15.89
aF12.71
aF15.89
aF12.71
aF15.89
aF12.71
aF15.89
aF12.71
aF15.89
aF12.71
aF15.89
aF12.71
aF15.89
aF12.71
aF9.53
aF6.35
aF6.35
aa(lp3
F14.83
aF14.83
aF14.83
aF16.42
aF14.83
aF16.42
aF14.83
aF16.42
aF14.83
aF14.83
aF14.83
aF14.83
aF14.83
aF14.83
aF14.83
aF14.83
aF14.83
aF14.83
aF8.47
aF8.47
aF8.47
aa(lp4
F16.95
aF16.95
aF16.95
aF16.95
aF16.95
aF16.95
aF16.95
aF15.99
aF16.95
aF16.95
aF16.95
aF16.95
aF16.95
aF16.95
aF16.95
aF10.59
aF10.59
aF10.59
aa(lp5
F19.07
aF19.07
aF19.07
aF19.07
aF19.07
aF19.07
aF19.07
aF19.07
aF19.07
aF19.07
aF19.07
aF19.07
aF19.07
aF19.07
aF19.07
aF12.71
aatp6
.