(VIllinois
p0
(lp1
(lp2
F17.09
aF13.67
aF17.09
aF13.67
aF17.09
aF13.67
aF17.09
aF13.67
aF17.09
aF13.67
aF17.09
aF13.67
aF17.09
aF13.67
aF17.09
aF13.67
aF17.09
aF13.67
aF17.09
aF13.67
aF17.09
aF13.67
aF17.09
aF13.67
aF17.09
aF13.67
aF17.09
aF13.67
aF17.09
aF13.67
aF10.25
aF6.83
aF6.83
aa(lp3
F15.95
aF15.95
aF15.95
aF17.66
aF15.95
aF17.66
aF15.95
aF17.66
aF15.95
aF15.95
aF15.95
aF15.95
aF15.95
aF15.95
aF15.95
aF15.95
aF15.95
aF15.95
aF9.11
aF9.11
aF9.11
aa(lp4
F18.23
aF18.23
aF18.23
aF18.23
aF18.23
aF18.23
aF18.23
aF15.99
aF18.23
aF18.23
aF18.23
aF18.23
aF18.23
aF18.23
aF18.23
aF11.39
aF11.39
aF11.39
aa(lp5
F20.51
aF20.51
aF20.51
aF20.51
aF20.51
aF20.51
aF20.51
aF20.51
aF20.51
aF20.51
aF20.51
aF20.51
aF20.51
aF20.51
aF20.51
aF13.67
aatp6
.