(VArizona
p0
(lp1
(lp2
F16.64
aF13.31
aF16.64
aF13.31
aF16.64
aF13.31
aF16.64
aF13.31
aF16.64
aF13.31
aF16.64
aF13.31
aF16.64
aF13.31
aF16.64
aF13.31
aF16.64
aF13.31
aF16.64
aF13.31
aF16.64
aF13.31
aF16.64
aF13.31
aF16.64
aF13.31
aF16.64
aF13.31
aF16.64
aF13.31
aF9.98
aF6.65
aF6.65
aa(lp3
F15.53
aF15.53
aF15.53
aF17.19
aF15.53
aF17.19
aF15.53
aF17.19
aF15.53
aF15.53
aF15.53
aF15.53
aF15.53
aF15.53
aF15.53
aF15.53
aF15.53
aF15.53
aF8.87
aF8.87
aF8.87
aa(lp4
F17.75
aF17.75
aF17.75
aF17.75
aF17.75
aF17.75
aF17.75
aF15.99
aF17.75
aF17.75
aF17.75
aF17.75
aF17.75
aF17.75
aF17.75
aF11.09
aF11.09
aF11.09
aa(lp5
F19.97
aF19.97
aF19.97
aF19.97
aF19.97
aF19.97
aF19.97
aF19.97
aF19.97
aF19.97
aF19.97
aF19.97
aF19.97
aF19.97
aF19.97
aF13.31
aatp6
.