(VMaryland
p0
(lp1
(lp2
F18.89
aF15.11
aF18.89
aF15.11
aF18.89
aF15.11
aF18.89
aF15.11
aF18.89
aF15.11
aF18.89
aF15.11
aF18.89
aF15.11
aF18.89
aF15.11
aF18.89
aF15.11
aF18.89
aF15.11
aF18.89
aF15.11
aF18.89
aF15.11
aF18.89
aF15.11
aF18.89
aF15.11
aF18.89
aF15.11
aF11.33
aF7.55
aF7.55
aa(lp3
F17.63
aF17.63
aF17.63
aF19.52
aF17.63
aF19.52
aF17.63
aF19.52
aF17.63
aF17.63
aF17.63
aF17.63
aF17.63
aF17.63
aF17.63
aF17.63
aF17.63
aF17.63
aF10.07
aF10.07
aF10.07
aa(lp4
F20.15
aF20.15
aF20.15
aF20.15
aF20.15
aF20.15
aF20.15
aF15.99
aF20.15
aF20.15
aF20.15
aF20.15
aF20.15
aF20.15
aF20.15
aF12.59
aF12.59
aF12.59
aa(lp5
F22.67
aF22.67
aF22.67
aF22.67
aF22.67
aF22.67
aF22.67
aF22.67
aF22.67
aF22.67
aF22.67
aF22.67
aF22.67
aF22.67
aF22.67
aF15.11
aatp6
.