(VAlaska
p0
(lp1
(lp2
F18.29
aF14.63
aF18.29
aF14.63
aF18.29
aF14.63
aF18.29
aF14.63
aF18.29
aF14.63
aF18.29
aF14.63
aF18.29
aF14.63
aF18.29
aF14.63
aF18.29
aF14.63
aF18.29
aF14.63
aF18.29
aF14.63
aF18.29
aF14.63
aF18.29
aF14.63
aF18.29
aF14.63
aF18.29
aF14.63
aF10.97
aF7.31
aF7.31
aa(lp3
F17.07
aF17.07
aF17.07
aF18.9
aF17.07
aF18.9
aF17.07
aF18.9
aF17.07
aF17.07
aF17.07
aF17.07
aF17.07
aF17.07
aF17.07
aF17.07
aF17.07
aF17.07
aF9.75
aF9.75
aF9.75
aa(lp4
F19.51
aF19.51
aF19.51
aF19.51
aF19.51
aF19.51
aF19.51
aF15.99
aF19.51
aF19.51
aF19.51
aF19.51
aF19.51
aF19.51
aF19.51
aF12.19
aF12.19
aF12.19
aa(lp5
F21.95
aF21.95
aF21.95
aF21.95
aF21.95
aF21.95
aF21.95
aF21.95
aF21.95
aF21.95
aF21.95
aF21.95
aF21.95
aF21.95
aF21.95
aF14.63
aatp6
.