(VMichigan
p0
(lp1
(lp2
F16.04
aF12.83
aF16.04
aF12.83
aF16.04
aF12.83
aF16.04
aF12.83
aF16.04
aF12.83
aF16.04
aF12.83
aF16.04
aF12.83
aF16.04
aF12.83
aF16.04
aF12.83
aF16.04
aF12.83
aF16.04
aF12.83
aF16.04
aF12.83
aF16.04
aF12.83
aF16.04
aF12.83
aF16.04
aF12.83
aF9.62
aF6.41
aF6.41
aa(lp3
F14.97
aF14.97
aF14.97
aF16.57
aF14.97
aF16.57
aF14.97
aF16.57
aF14.97
aF14.97
aF14.97
aF14.97
aF14.97
aF14.97
aF14.97
aF14.97
aF14.97
aF14.97
aF8.55
aF8.55
aF8.55
aa(lp4
F17.11
aF17.11
aF17.11
aF17.11
aF17.11
aF17.11
aF17.11
aF15.99
aF17.11
aF17.11
aF17.11
aF17.11
aF17.11
aF17.11
aF17.11
aF10.69
aF10.69
aF10.69
aa(lp5
F19.25
aF19.25
aF19.25
aF19.25
aF19.25
aF19.25
aF19.25
aF19.25
aF19.25
aF19.25
aF19.25
aF19.25
aF19.25
aF19.25
aF19.25
aF12.83
aatp6
.