(VMississippi
p0
(lp1
(lp2
F14.69
aF11.75
aF14.69
aF11.75
aF14.69
aF11.75
aF14.69
aF11.75
aF14.69
aF11.75
aF14.69
aF11.75
aF14.69
aF11.75
aF14.69
aF11.75
aF14.69
aF11.75
aF14.69
aF11.75
aF14.69
aF11.75
aF14.69
aF11.75
aF14.69
aF11.75
aF14.69
aF11.75
aF14.69
aF11.75
aF8.81
aF5.87
aF5.87
aa(lp3
F13.71
aF13.71
aF13.71
aF15.18
aF13.71
aF15.18
aF13.71
aF15.18
aF13.71
aF13.71
aF13.71
aF13.71
aF13.71
aF13.71
aF13.71
aF13.71
aF13.71
aF13.71
aF7.83
aF7.83
aF7.83
aa(lp4
F15.67
aF15.67
aF15.67
aF15.67
aF15.67
aF15.67
aF15.67
aF15.99
aF15.67
aF15.67
aF15.67
aF15.67
aF15.67
aF15.67
aF15.67
aF9.79
aF9.79
aF9.79
aa(lp5
F17.63
aF17.63
aF17.63
aF17.63
aF17.63
aF17.63
aF17.63
aF17.63
aF17.63
aF17.63
aF17.63
aF17.63
aF17.63
aF17.63
aF17.63
aF11.75
aatp6
.