(VNew Hampshire
p0
(lp1
(lp2
F18.14
aF14.51
aF18.14
aF14.51
aF18.14
aF14.51
aF18.14
aF14.51
aF18.14
aF14.51
aF18.14
aF14.51
aF18.14
aF14.51
aF18.14
aF14.51
aF18.14
aF14.51
aF18.14
aF14.51
aF18.14
aF14.51
aF18.14
aF14.51
aF18.14
aF14.51
aF18.14
aF14.51
aF18.14
aF14.51
aF10.88
aF7.25
aF7.25
aa(lp3
F16.93
aF16.93
aF16.93
aF18.74
aF16.93
aF18.74
aF16.93
aF18.74
aF16.93
aF16.93
aF16.93
aF16.93
aF16.93
aF16.93
aF16.93
aF16.93
aF16.93
aF16.93
aF9.67
aF9.67
aF9.67
aa(lp4
F19.35
aF19.35
aF19.35
aF19.35
aF19.35
aF19.35
aF19.35
aF15.99
aF19.35
aF19.35
aF19.35
aF19.35
aF19.35
aF19.35
aF19.35
aF12.09
aF12.09
aF12.09
aa(lp5
F21.77
aF21.77
aF21.77
aF21.77
aF21.77
aF21.77
aF21.77
aF21.77
aF21.77
aF21.77
aF21.77
aF21.77
aF21.77
aF21.77
aF21.77
aF14.51
aatp6
.