(VArkansas
p0
(lp1
(lp2
F14.84
aF11.87
aF14.84
aF11.87
aF14.84
aF11.87
aF14.84
aF11.87
aF14.84
aF11.87
aF14.84
aF11.87
aF14.84
aF11.87
aF14.84
aF11.87
aF14.84
aF11.87
aF14.84
aF11.87
aF14.84
aF11.87
aF14.84
aF11.87
aF14.84
aF11.87
aF14.84
aF11.87
aF14.84
aF11.87
aF8.9
aF5.93
aF5.93
aa(lp3
F13.85
aF13.85
aF13.85
aF15.34
aF13.85
aF15.34
aF13.85
aF15.34
aF13.85
aF13.85
aF13.85
aF13.85
aF13.85
aF13.85
aF13.85
aF13.85
aF13.85
aF13.85
aF7.91
aF7.91
aF7.91
aa(lp4
F15.83
aF15.83
aF15.83
aF15.83
aF15.83
aF15.83
aF15.83
aF15.99
aF15.83
aF15.83
aF15.83
aF15.83
aF15.83
aF15.83
aF15.83
aF9.89
aF9.89
aF9.89
aa(lp5
F17.81
aF17.81
aF17.81
aF17.81
aF17.81
aF17.81
aF17.81
aF17.81
aF17.81
aF17.81
aF17.81
aF17.81
aF17.81
aF17.81
aF17.81
aF11.87
aatp6
.