(VNew Jersey
p0
(lp1
(lp2
F19.49
aF15.59
aF19.49
aF15.59
aF19.49
aF15.59
aF19.49
aF15.59
aF19.49
aF15.59
aF19.49
aF15.59
aF19.49
aF15.59
aF19.49
aF15.59
aF19.49
aF15.59
aF19.49
aF15.59
aF19.49
aF15.59
aF19.49
aF15.59
aF19.49
aF15.59
aF19.49
aF15.59
aF19.49
aF15.59
aF11.69
aF7.79
aF7.79
aa(lp3
F18.19
aF18.19
aF18.19
aF20.14
aF18.19
aF20.14
aF18.19
aF20.14
aF18.19
aF18.19
aF18.19
aF18.19
aF18.19
aF18.19
aF18.19
aF18.19
aF18.19
aF18.19
aF10.39
aF10.39
aF10.39
aa(lp4
F20.79
aF20.79
aF20.79
aF20.79
aF20.79
aF20.79
aF20.79
aF15.99
aF20.79
aF20.79
aF20.79
aF20.79
aF20.79
aF20.79
aF20.79
aF12.99
aF12.99
aF12.99
aa(lp5
F23.39
aF23.39
aF23.39
aF23.39
aF23.39
aF23.39
aF23.39
aF23.39
aF23.39
aF23.39
aF23.39
aF23.39
aF23.39
aF23.39
aF23.39
aF15.59
aatp6
.