(VNew Mexico
p0
(lp1
(lp2
F16.19
aF12.95
aF16.19
aF12.95
aF16.19
aF12.95
aF16.19
aF12.95
aF16.19
aF12.95
aF16.19
aF12.95
aF16.19
aF12.95
aF16.19
aF12.95
aF16.19
aF12.95
aF16.19
aF12.95
aF16.19
aF12.95
aF16.19
aF12.95
aF16.19
aF12.95
aF16.19
aF12.95
aF16.19
aF12.95
aF9.71
aF6.47
aF6.47
aa(lp3
F15.11
aF15.11
aF15.11
aF16.73
aF15.11
aF16.73
aF15.11
aF16.73
aF15.11
aF15.11
aF15.11
aF15.11
aF15.11
aF15.11
aF15.11
aF15.11
aF15.11
aF15.11
aF8.63
aF8.63
aF8.63
aa(lp4
F17.27
aF17.27
aF17.27
aF17.27
aF17.27
aF17.27
aF17.27
aF15.99
aF17.27
aF17.27
aF17.27
aF17.27
aF17.27
aF17.27
aF17.27
aF10.79
aF10.79
aF10.79
aa(lp5
F19.43
aF19.43
aF19.43
aF19.43
aF19.43
aF19.43
aF19.43
aF19.43
aF19.43
aF19.43
aF19.43
aF19.43
aF19.43
aF19.43
aF19.43
aF12.95
aatp6
.