(VNew York
p0
(lp1
(lp2
F19.64
aF15.71
aF19.64
aF15.71
aF19.64
aF15.71
aF19.64
aF15.71
aF19.64
aF15.71
aF19.64
aF15.71
aF19.64
aF15.71
aF19.64
aF15.71
aF19.64
aF15.71
aF19.64
aF15.71
aF19.64
aF15.71
aF19.64
aF15.71
aF19.64
aF15.71
aF19.64
aF15.71
aF19.64
aF15.71
aF11.78
aF7.85
aF7.85
aa(lp3
F18.33
aF18.33
aF18.33
aF20.29
aF18.33
aF20.29
aF18.33
aF20.29
aF18.33
aF18.33
aF18.33
aF18.33
aF18.33
aF18.33
aF18.33
aF18.33
aF18.33
aF18.33
aF10.47
aF10.47
aF10.47
aa(lp4
F20.95
aF20.95
aF20.95
aF20.95
aF20.95
aF20.95
aF20.95
aF15.99
aF20.95
aF20.95
aF20.95
aF20.95
aF20.95
aF20.95
aF20.95
aF13.09
aF13.09
aF13.09
aa(lp5
F23.57
aF23.57
aF23.57
aF23.57
aF23.57
aF23.57
aF23.57
aF23.57
aF23.57
aF23.57
aF23.57
aF23.57
aF23.57
aF23.57
aF23.57
aF15.71
aatp6
.