(VKentucky
p0
(lp1
(lp2
F15.14
aF12.11
aF15.14
aF12.11
aF15.14
aF12.11
aF15.14
aF12.11
aF15.14
aF12.11
aF15.14
aF12.11
aF15.14
aF12.11
aF15.14
aF12.11
aF15.14
aF12.11
aF15.14
aF12.11
aF15.14
aF12.11
aF15.14
aF12.11
aF15.14
aF12.11
aF15.14
aF12.11
aF15.14
aF12.11
aF9.08
aF6.05
aF6.05
aa(lp3
F14.13
aF14.13
aF14.13
aF15.64
aF14.13
aF15.64
aF14.13
aF15.64
aF14.13
aF14.13
aF14.13
aF14.13
aF14.13
aF14.13
aF14.13
aF14.13
aF14.13
aF14.13
aF8.07
aF8.07
aF8.07
aa(lp4
F16.15
aF16.15
aF16.15
aF16.15
aF16.15
aF16.15
aF16.15
aF15.99
aF16.15
aF16.15
aF16.15
aF16.15
aF16.15
aF16.15
aF16.15
aF10.09
aF10.09
aF10.09
aa(lp5
F18.17
aF18.17
aF18.17
aF18.17
aF18.17
aF18.17
aF18.17
aF18.17
aF18.17
aF18.17
aF18.17
aF18.17
aF18.17
aF18.17
aF18.17
aF12.11
aatp6
.