(VIowa
p0
(lp1
(lp2
F15.29
aF12.23
aF15.29
aF12.23
aF15.29
aF12.23
aF15.29
aF12.23
aF15.29
aF12.23
aF15.29
aF12.23
aF15.29
aF12.23
aF15.29
aF12.23
aF15.29
aF12.23
aF15.29
aF12.23
aF15.29
aF12.23
aF15.29
aF12.23
aF15.29
aF12.23
aF15.29
aF12.23
aF15.29
aF12.23
aF9.17
aF6.11
aF6.11
aa(lp3
F14.27
aF14.27
aF14.27
aF15.8
aF14.27
aF15.8
aF14.27
aF15.8
aF14.27
aF14.27
aF14.27
aF14.27
aF14.27
aF14.27
aF14.27
aF14.27
aF14.27
aF14.27
aF8.15
aF8.15
aF8.15
aa(lp4
F16.31
aF16.31
aF16.31
aF16.31
aF16.31
aF16.31
aF16.31
aF15.99
aF16.31
aF16.31
aF16.31
aF16.31
aF16.31
aF16.31
aF16.31
aF10.19
aF10.19
aF10.19
aa(lp5
F18.35
aF18.35
aF18.35
aF18.35
aF18.35
aF18.35
aF18.35
aF18.35
aF18.35
aF18.35
aF18.35
aF18.35
aF18.35
aF18.35
aF18.35
aF12.23
aatp6
.