(VFlorida
p0
(lp1
(lp2
F16.79
aF13.43
aF16.79
aF13.43
aF16.79
aF13.43
aF16.79
aF13.43
aF16.79
aF13.43
aF16.79
aF13.43
aF16.79
aF13.43
aF16.79
aF13.43
aF16.79
aF13.43
aF16.79
aF13.43
aF16.79
aF13.43
aF16.79
aF13.43
aF16.79
aF13.43
aF16.79
aF13.43
aF16.79
aF13.43
aF10.07
aF6.71
aF6.71
aa(lp3
F15.67
aF15.67
aF15.67
aF17.35
aF15.67
aF17.35
aF15.67
aF17.35
aF15.67
aF15.67
aF15.67
aF15.67
aF15.67
aF15.67
aF15.67
aF15.67
aF15.67
aF15.67
aF8.95
aF8.95
aF8.95
aa(lp4
F17.91
aF17.91
aF17.91
aF17.91
aF17.91
aF17.91
aF17.91
aF15.99
aF17.91
aF17.91
aF17.91
aF17.91
aF17.91
aF17.91
aF17.91
aF11.19
aF11.19
aF11.19
aa(lp5
F20.15
aF20.15
aF20.15
aF20.15
aF20.15
aF20.15
aF20.15
aF20.15
aF20.15
aF20.15
aF20.15
aF20.15
aF20.15
aF20.15
aF20.15
aF13.43
aatp6
.