(VCalifornia
p0
(lp1
(lp2
F19.19
aF15.35
aF19.19
aF15.35
aF19.19
aF15.35
aF19.19
aF15.35
aF19.19
aF15.35
aF19.19
aF15.35
aF19.19
aF15.35
aF19.19
aF15.35
aF19.19
aF15.35
aF19.19
aF15.35
aF19.19
aF15.35
aF19.19
aF15.35
aF19.19
aF15.35
aF19.19
aF15.35
aF19.19
aF15.35
aF11.51
aF7.67
aF7.67
aa(lp3
F17.91
aF17.91
aF17.91
aF19.83
aF17.91
aF19.83
aF17.91
aF19.83
aF17.91
aF17.91
aF17.91
aF17.91
aF17.91
aF17.91
aF17.91
aF17.91
aF17.91
aF17.91
aF10.23
aF10.23
aF10.23
aa(lp4
F20.47
aF20.47
aF20.47
aF20.47
aF20.47
aF20.47
aF20.47
aF15.99
aF20.47
aF20.47
aF20.47
aF20.47
aF20.47
aF20.47
aF20.47
aF12.79
aF12.79
aF12.79
aa(lp5
F23.03
aF23.03
aF23.03
aF23.03
aF23.03
aF23.03
aF23.03
aF23.03
aF23.03
aF23.03
aF23.03
aF23.03
aF23.03
aF23.03
aF23.03
aF15.35
aatp6
.