(VAlabama
p0
(lp1
(lp2
F14.99
aF11.99
aF14.99
aF11.99
aF14.99
aF11.99
aF14.99
aF11.99
aF14.99
aF11.99
aF14.99
aF11.99
aF14.99
aF11.99
aF14.99
aF11.99
aF14.99
aF11.99
aF14.99
aF11.99
aF14.99
aF11.99
aF14.99
aF11.99
aF14.99
aF11.99
aF14.99
aF11.99
aF14.99
aF11.99
aF8.99
aF5.99
aF5.99
aa(lp3
F13.99
aF13.99
aF13.99
aF15.49
aF13.99
aF15.49
aF13.99
aF15.49
aF13.99
aF13.99
aF13.99
aF13.99
aF13.99
aF13.99
aF13.99
aF13.99
aF13.99
aF13.99
aF7.99
aF7.99
aF7.99
aa(lp4
F15.99
aF15.99
aF15.99
aF15.99
aF15.99
aF15.99
aF15.99
aF15.99
aF15.99
aF15.99
aF15.99
aF15.99
aF15.99
aF15.99
aF15.99
aF9.99
aF9.99
aF9.99
aa(lp5
F17.99
aF17.99
aF17.99
aF17.99
aF17.99
aF17.99
aF17.99
aF17.99
aF17.99
aF17.99
aF17.99
aF17.99
aF17.99
aF17.99
aF17.99
aF11.99
aatp6
.