(VIndiana
p0
(lp1
(lp2
F15.44
aF12.35
aF15.44
aF12.35
aF15.44
aF12.35
aF15.44
aF12.35
aF15.44
aF12.35
aF15.44
aF12.35
aF15.44
aF12.35
aF15.44
aF12.35
aF15.44
aF12.35
aF15.44
aF12.35
aF15.44
aF12.35
aF15.44
aF12.35
aF15.44
aF12.35
aF15.44
aF12.35
aF15.44
aF12.35
aF9.26
aF6.17
aF6.17
aa(lp3
F14.41
aF14.41
aF14.41
aF15.95
aF14.41
aF15.95
aF14.41
aF15.95
aF14.41
aF14.41
aF14.41
aF14.41
aF14.41
aF14.41
aF14.41
aF14.41
aF14.41
aF14.41
aF8.23
aF8.23
aF8.23
aa(lp4
F16.47
aF16.47
aF16.47
aF16.47
aF16.47
aF16.47
aF16.47
aF15.99
aF16.47
aF16.47
aF16.47
aF16.47
aF16.47
aF16.47
aF16.47
aF10.29
aF10.29
aF10.29
aa(lp5
F18.53
aF18.53
aF18.53
aF18.53
aF18.53
aF18.53
aF18.53
aF18.53
aF18.53
aF18.53
aF18.53
aF18.53
aF18.53
aF18.53
aF18.53
aF12.35
aatp6
.