(VTexas
p0
(lp1
(lp2
F16.49
aF13.19
aF16.49
aF13.19
aF16.49
aF13.19
aF16.49
aF13.19
aF16.49
aF13.19
aF16.49
aF13.19
aF16.49
aF13.19
aF16.49
aF13.19
aF16.49
aF13.19
aF16.49
aF13.19
aF16.49
aF13.19
aF16.49
aF13.19
aF16.49
aF13.19
aF16.49
aF13.19
aF16.49
aF13.19
aF9.89
aF6.59
aF6.59
aa(lp3
F15.39
aF15.39
aF15.39
aF17.04
aF15.39
aF17.04
aF15.39
aF17.04
aF15.39
aF15.39
aF15.39
aF15.39
aF15.39
aF15.39
aF15.39
aF15.39
aF15.39
aF15.39
aF8.79
aF8.79
aF8.79
aa(lp4
F17.59
aF17.59
aF17.59
aF17.59
aF17.59
aF17.59
aF17.59
aF15.99
aF17.59
aF17.59
aF17.59
aF17.59
aF17.59
aF17.59
aF17.59
aF10.99
aF10.99
aF10.99
aa(lp5
F19.79
aF19.79
aF19.79
aF19.79
aF19.79
aF19.79
aF19.79
aF19.79
aF19.79
aF19.79
aF19.79
aF19.79
aF19.79
aF19.79
aF19.79
aF13.19
aatp6
.