(VVirginia
p0
(lp1
(lp2
F17.54
aF14.03
aF17.54
aF14.03
aF17.54
aF14.03
aF17.54
aF14.03
aF17.54
aF14.03
aF17.54
aF14.03
aF17.54
aF14.03
aF17.54
aF14.03
aF17.54
aF14.03
aF17.54
aF14.03
aF17.54
aF14.03
aF17.54
aF14.03
aF17.54
aF14.03
aF17.54
aF14.03
aF17.54
aF14.03
aF10.52
aF7.01
aF7.01
aa(lp3
F16.37
aF16.37
aF16.37
aF18.12
aF16.37
aF18.12
aF16.37
aF18.12
aF16.37
aF16.37
aF16.37
aF16.37
aF16.37
aF16.37
aF16.37
aF16.37
aF16.37
aF16.37
aF9.35
aF9.35
aF9.35
aa(lp4
F18.71
aF18.71
aF18.71
aF18.71
aF18.71
aF18.71
aF18.71
aF15.99
aF18.71
aF18.71
aF18.71
aF18.71
aF18.71
aF18.71
aF18.71
aF11.69
aF11.69
aF11.69
aa(lp5
F21.05
aF21.05
aF21.05
aF21.05
aF21.05
aF21.05
aF21.05
aF21.05
aF21.05
aF21.05
aF21.05
aF21.05
aF21.05
aF21.05
aF21.05
aF14.03
aatp6
.