(VWisconsin
p0
(lp1
(lp2
F15.74
aF12.59
aF15.74
aF12.59
aF15.74
aF12.59
aF15.74
aF12.59
aF15.74
aF12.59
aF15.74
aF12.59
aF15.74
aF12.59
aF15.74
aF12.59
aF15.74
aF12.59
aF15.74
aF12.59
aF15.74
aF12.59
aF15.74
aF12.59
aF15.74
aF12.59
aF15.74
aF12.59
aF15.74
aF12.59
aF9.44
aF6.29
aF6.29
aa(lp3
F14.69
aF14.69
aF14.69
aF16.26
aF14.69
aF16.26
aF14.69
aF16.26
aF14.69
aF14.69
aF14.69
aF14.69
aF14.69
aF14.69
aF14.69
aF14.69
aF14.69
aF14.69
aF8.39
aF8.39
aF8.39
aa(lp4
F16.79
aF16.79
aF16.79
aF16.79
aF16.79
aF16.79
aF16.79
aF15.99
aF16.79
aF16.79
aF16.79
aF16.79
aF16.79
aF16.79
aF16.79
aF10.49
aF10.49
aF10.49
aa(lp5
F18.89
aF18.89
aF18.89
aF18.89
aF18.89
aF18.89
aF18.89
aF18.89
aF18.89
aF18.89
aF18.89
aF18.89
aF18.89
aF18.89
aF18.89
aF12.59
aatp6
.