(VColorado
p0
(lp1
(lp2
F17.24
aF13.79
aF17.24
aF13.79
aF17.24
aF13.79
aF17.24
aF13.79
aF17.24
aF13.79
aF17.24
aF13.79
aF17.24
aF13.79
aF17.24
aF13.79
aF17.24
aF13.79
aF17.24
aF13.79
aF17.24
aF13.79
aF17.24
aF13.79
aF17.24
aF13.79
aF17.24
aF13.79
aF17.24
aF13.79
aF10.34
aF6.89
aF6.89
aa(lp3
F16.09
aF16.09
aF16.09
aF17.81
aF16.09
aF17.81
aF16.09
aF17.81
aF16.09
aF16.09
aF16.09
aF16.09
aF16.09
aF16.09
aF16.09
aF16.09
aF16.09
aF16.09
aF9.19
aF9.19
aF9.19
aa(lp4
F18.39
aF18.39
aF18.39
aF18.39
aF18.39
aF18.39
aF18.39
aF15.99
aF18.39
aF18.39
aF18.39
aF18.39
aF18.39
aF18.39
aF18.39
aF11.49
aF11.49
aF11.49
aa(lp5
F20.69
aF20.69
aF20.69
aF20.69
aF20.69
aF20.69
aF20.69
aF20.69
aF20.69
aF20.69
aF20.69
aF20.69
aF20.69
aF20.69
aF20.69
aF13.79
aatp6
.