(VWyoming
p0
(lp1
(lp2
F16.34
aF13.07
aF16.34
aF13.07
aF16.34
aF13.07
aF16.34
aF13.07
aF16.34
aF13.07
aF16.34
aF13.07
aF16.34
aF13.07
aF16.34
aF13.07
aF16.34
aF13.07
aF16.34
aF13.07
aF16.34
aF13.07
aF16.34
aF13.07
aF16.34
aF13.07
aF16.34
aF13.07
aF16.34
aF13.07
aF9.8
aF6.53
aF6.53
aa(lp3
F15.25
aF15.25
aF15.25
aF16.88
aF15.25
aF16.88
aF15.25
aF16.88
aF15.25
aF15.25
aF15.25
aF15.25
aF15.25
aF15.25
aF15.25
aF15.25
aF15.25
aF15.25
aF8.71
aF8.71
aF8.71
aa(lp4
F17.43
aF17.43
aF17.43
aF17.43
aF17.43
aF17.43
aF17.43
aF15.99
aF17.43
aF17.43
aF17.43
aF17.43
aF17.43
aF17.43
aF17.43
aF10.89
aF10.89
aF10.89
aa(lp5
F19.61
aF19.61
aF19.61
aF19.61
aF19.61
aF19.61
aF19.61
aF19.61
aF19.61
aF19.61
aF19.61
aF19.61
aF19.61
aF19.61
aF19.61
aF13.07
aatp6
.