(VConnecticut
p0
(lp1
(lp2
F18.59
aF14.87
aF18.59
aF14.87
aF18.59
aF14.87
aF18.59
aF14.87
aF18.59
aF14.87
aF18.59
aF14.87
aF18.59
aF14.87
aF18.59
aF14.87
aF18.59
aF14.87
aF18.59
aF14.87
aF18.59
aF14.87
aF18.59
aF14.87
aF18.59
aF14.87
aF18.59
aF14.87
aF18.59
aF14.87
aF11.15
aF7.43
aF7.43
aa(lp3
F17.35
aF17.35
aF17.35
aF19.21
aF17.35
aF19.21
aF17.35
aF19.21
aF17.35
aF17.35
aF17.35
aF17.35
aF17.35
aF17.35
aF17.35
aF17.35
aF17.35
aF17.35
aF9.91
aF9.91
aF9.91
aa(lp4
F19.83
aF19.83
aF19.83
aF19.83
aF19.83
aF19.83
aF19.83
aF15.99
aF19.83
aF19.83
aF19.83
aF19.83
aF19.83
aF19.83
aF19.83
aF12.39
aF12.39
aF12.39
aa(lp5
F22.31
aF22.31
aF22.31
aF22.31
aF22.31
aF22.31
aF22.31
aF22.31
aF22.31
aF22.31
aF22.31
aF22.31
aF22.31
aF22.31
aF22.31
aF14.87
aatp6
.