(VDelaware
p0
(lp1
(lp2
F17.39
aF13.91
aF17.39
aF13.91
aF17.39
aF13.91
aF17.39
aF13.91
aF17.39
aF13.91
aF17.39
aF13.91
aF17.39
aF13.91
aF17.39
aF13.91
aF17.39
aF13.91
aF17.39
aF13.91
aF17.39
aF13.91
aF17.39
aF13.91
aF17.39
aF13.91
aF17.39
aF13.91
aF17.39
aF13.91
aF10.43
aF6.95
aF6.95
aa(lp3
F16.23
aF16.23
aF16.23
aF17.97
aF16.23
aF17.97
aF16.23
aF17.97
aF16.23
aF16.23
aF16.23
aF16.23
aF16.23
aF16.23
aF16.23
aF16.23
aF16.23
aF16.23
aF9.27
aF9.27
aF9.27
aa(lp4
F18.55
aF18.55
aF18.55
aF18.55
aF18.55
aF18.55
aF18.55
aF15.99
aF18.55
aF18.55
aF18.55
aF18.55
aF18.55
aF18.55
aF18.55
aF11.59
aF11.59
aF11.59
aa(lp5
F20.87
aF20.87
aF20.87
aF20.87
aF20.87
aF20.87
aF20.87
aF20.87
aF20.87
aF20.87
aF20.87
aF20.87
aF20.87
aF20.87
aF20.87
aF13.91
aatp6
.