(VDistrict of Columbia
p0
(lp1
(lp2
F20.09
aF16.07
aF20.09
aF16.07
aF20.09
aF16.07
aF20.09
aF16.07
aF20.09
aF16.07
aF20.09
aF16.07
aF20.09
aF16.07
aF20.09
aF16.07
aF20.09
aF16.07
aF20.09
aF16.07
aF20.09
aF16.07
aF20.09
aF16.07
aF20.09
aF16.07
aF20.09
aF16.07
aF20.09
aF16.07
aF12.05
aF8.03
aF8.03
aa(lp3
F18.75
aF18.75
aF18.75
aF20.76
aF18.75
aF20.76
aF18.75
aF20.76
aF18.75
aF18.75
aF18.75
aF18.75
aF18.75
aF18.75
aF18.75
aF18.75
aF18.75
aF18.75
aF10.71
aF10.71
aF10.71
aa(lp4
F21.43
aF21.43
aF21.43
aF21.43
aF21.43
aF21.43
aF21.43
aF15.99
aF21.43
aF21.43
aF21.43
aF21.43
aF21.43
aF21.43
aF21.43
aF13.39
aF13.39
aF13.39
aa(lp5
F24.11
aF24.11
aF24.11
aF24.11
aF24.11
aF24.11
aF24.11
aF24.11
aF24.11
aF24.11
aF24.11
aF24.11
aF24.11
aF24.11
aF24.11
aF16.07
aatp6
.