(VAlabama
p0
(lp1
(lp2
F4.79
aF5.29
aF4.79
aF4.79
aF5.29
aF4.79
aF4.79
aF4.79
aF4.79
aF4.79
aF4.79
aF4.79
aa(lp3
F11.99
aF11.99
aF11.99
aF11.99
aF11.99
aF11.99
aF11.99
aF11.99
aF11.99
aF11.99
aF12.99
aF12.99
aF12.99
aF11.99
aF11.99
aF11.99
aF11.99
aF11.99
aF11.99
aF12.99
aF12.99
aF12.99
aF11.99
aF11.99
aF11.99
aF11.99
aF11.99
aF11.99
aF11.99
aF11.99
aF11.99
aF11.99
aF11.99
aF11.99
aF11.99
aF11.99
aF11.99
aF11.99
aF11.99
aF11.99
aF11.99
aF11.99
aF11.99
aa(lp4
F14.99
aF14.99
aF14.99
aF14.99
aF14.99
aF14.99
aF14.99
aF14.99
aF14.99
aF14.99
aF14.99
aF14.99
aF14.99
aF14.99
aF14.99
aF15.99
aF17.99
aF15.99
aF15.99
aF15.99
aF14.99
aF16.99
aF14.99
aF14.99
aF14.99
aF14.99
aF16.99
aF14.99
aF14.99
aF14.99
aF15.99
aF17.99
aF15.99
aF15.99
aF15.99
aF14.99
aF16.99
aF14.99
aF14.99
aF14.99
aF14.99
aF16.99
aF14.99
aF14.99
aF14.99
aF14.99
aF16.99
aF14.99
aF14.99
aF14.99
aF14.99
aF16.99
aF14.99
aF14.99
aF14.99
aF14.99
aF16.99
aF14.99
aF14.99
aF14.99
aF14.99
aF16.99
aF14.99
aF14.99
aF14.99
aF14.99
aF16.99
aF14.99
aF14.99
aF14.99
aatp5
.