(VGeorgia
p0
(lp1
(lp2
F4.98
aF5.5
aF4.98
aF4.98
aF5.5
aF4.98
aF4.98
aF4.98
aF4.98
aF4.98
aF4.98
aF4.98
aa(lp3
F12.47
aF12.47
aF12.47
aF12.47
aF12.47
aF12.47
aF12.47
aF12.47
aF12.47
aF12.47
aF13.51
aF13.51
aF13.51
aF12.47
aF12.47
aF12.47
aF12.47
aF12.47
aF12.47
aF13.51
aF13.51
aF13.51
aF12.47
aF12.47
aF12.47
aF12.47
aF12.47
aF12.47
aF12.47
aF12.47
aF12.47
aF12.47
aF12.47
aF12.47
aF12.47
aF12.47
aF12.47
aF12.47
aF12.47
aF12.47
aF12.47
aF12.47
aF12.47
aa(lp4
F15.59
aF15.59
aF15.59
aF15.59
aF15.59
aF15.59
aF15.59
aF15.59
aF15.59
aF15.59
aF15.59
aF15.59
aF15.59
aF15.59
aF15.59
aF16.63
aF18.71
aF16.63
aF16.63
aF16.63
aF15.59
aF17.67
aF15.59
aF15.59
aF15.59
aF15.59
aF17.67
aF15.59
aF15.59
aF15.59
aF16.63
aF18.71
aF16.63
aF16.63
aF16.63
aF15.59
aF17.67
aF15.59
aF15.59
aF15.59
aF15.59
aF17.67
aF15.59
aF15.59
aF15.59
aF15.59
aF17.67
aF15.59
aF15.59
aF15.59
aF15.59
aF17.67
aF15.59
aF15.59
aF15.59
aF15.59
aF17.67
aF15.59
aF15.59
aF15.59
aF15.59
aF17.67
aF15.59
aF15.59
aF15.59
aF15.59
aF17.67
aF15.59
aF15.59
aF15.59
aatp5
.