(VHawaii
p0
(lp1
(lp2
F6.37
aF7.04
aF6.37
aF6.37
aF7.04
aF6.37
aF6.37
aF6.37
aF6.37
aF6.37
aF6.37
aF6.37
aa(lp3
F15.95
aF15.95
aF15.95
aF15.95
aF15.95
aF15.95
aF15.95
aF15.95
aF15.95
aF15.95
aF17.28
aF17.28
aF17.28
aF15.95
aF15.95
aF15.95
aF15.95
aF15.95
aF15.95
aF17.28
aF17.28
aF17.28
aF15.95
aF15.95
aF15.95
aF15.95
aF15.95
aF15.95
aF15.95
aF15.95
aF15.95
aF15.95
aF15.95
aF15.95
aF15.95
aF15.95
aF15.95
aF15.95
aF15.95
aF15.95
aF15.95
aF15.95
aF15.95
aa(lp4
F19.94
aF19.94
aF19.94
aF19.94
aF19.94
aF19.94
aF19.94
aF19.94
aF19.94
aF19.94
aF19.94
aF19.94
aF19.94
aF19.94
aF19.94
aF21.27
aF23.93
aF21.27
aF21.27
aF21.27
aF19.94
aF22.6
aF19.94
aF19.94
aF19.94
aF19.94
aF22.6
aF19.94
aF19.94
aF19.94
aF21.27
aF23.93
aF21.27
aF21.27
aF21.27
aF19.94
aF22.6
aF19.94
aF19.94
aF19.94
aF19.94
aF22.6
aF19.94
aF19.94
aF19.94
aF19.94
aF22.6
aF19.94
aF19.94
aF19.94
aF19.94
aF22.6
aF19.94
aF19.94
aF19.94
aF19.94
aF22.6
aF19.94
aF19.94
aF19.94
aF19.94
aF22.6
aF19.94
aF19.94
aF19.94
aF19.94
aF22.6
aF19.94
aF19.94
aF19.94
aatp5
.