(VIdaho
p0
(lp1
(lp2
F5.08
aF5.61
aF5.08
aF5.08
aF5.61
aF5.08
aF5.08
aF5.08
aF5.08
aF5.08
aF5.08
aF5.08
aa(lp3
F12.71
aF12.71
aF12.71
aF12.71
aF12.71
aF12.71
aF12.71
aF12.71
aF12.71
aF12.71
aF13.77
aF13.77
aF13.77
aF12.71
aF12.71
aF12.71
aF12.71
aF12.71
aF12.71
aF13.77
aF13.77
aF13.77
aF12.71
aF12.71
aF12.71
aF12.71
aF12.71
aF12.71
aF12.71
aF12.71
aF12.71
aF12.71
aF12.71
aF12.71
aF12.71
aF12.71
aF12.71
aF12.71
aF12.71
aF12.71
aF12.71
aF12.71
aF12.71
aa(lp4
F15.89
aF15.89
aF15.89
aF15.89
aF15.89
aF15.89
aF15.89
aF15.89
aF15.89
aF15.89
aF15.89
aF15.89
aF15.89
aF15.89
aF15.89
aF16.95
aF19.07
aF16.95
aF16.95
aF16.95
aF15.89
aF18.01
aF15.89
aF15.89
aF15.89
aF15.89
aF18.01
aF15.89
aF15.89
aF15.89
aF16.95
aF19.07
aF16.95
aF16.95
aF16.95
aF15.89
aF18.01
aF15.89
aF15.89
aF15.89
aF15.89
aF18.01
aF15.89
aF15.89
aF15.89
aF15.89
aF18.01
aF15.89
aF15.89
aF15.89
aF15.89
aF18.01
aF15.89
aF15.89
aF15.89
aF15.89
aF18.01
aF15.89
aF15.89
aF15.89
aF15.89
aF18.01
aF15.89
aF15.89
aF15.89
aF15.89
aF18.01
aF15.89
aF15.89
aF15.89
aatp5
.