(VIllinois
p0
(lp1
(lp2
F5.46
aF6.03
aF5.46
aF5.46
aF6.03
aF5.46
aF5.46
aF5.46
aF5.46
aF5.46
aF5.46
aF5.46
aa(lp3
F13.67
aF13.67
aF13.67
aF13.67
aF13.67
aF13.67
aF13.67
aF13.67
aF13.67
aF13.67
aF14.81
aF14.81
aF14.81
aF13.67
aF13.67
aF13.67
aF13.67
aF13.67
aF13.67
aF14.81
aF14.81
aF14.81
aF13.67
aF13.67
aF13.67
aF13.67
aF13.67
aF13.67
aF13.67
aF13.67
aF13.67
aF13.67
aF13.67
aF13.67
aF13.67
aF13.67
aF13.67
aF13.67
aF13.67
aF13.67
aF13.67
aF13.67
aF13.67
aa(lp4
F17.09
aF17.09
aF17.09
aF17.09
aF17.09
aF17.09
aF17.09
aF17.09
aF17.09
aF17.09
aF17.09
aF17.09
aF17.09
aF17.09
aF17.09
aF18.23
aF20.51
aF18.23
aF18.23
aF18.23
aF17.09
aF19.37
aF17.09
aF17.09
aF17.09
aF17.09
aF19.37
aF17.09
aF17.09
aF17.09
aF18.23
aF20.51
aF18.23
aF18.23
aF18.23
aF17.09
aF19.37
aF17.09
aF17.09
aF17.09
aF17.09
aF19.37
aF17.09
aF17.09
aF17.09
aF17.09
aF19.37
aF17.09
aF17.09
aF17.09
aF17.09
aF19.37
aF17.09
aF17.09
aF17.09
aF17.09
aF19.37
aF17.09
aF17.09
aF17.09
aF17.09
aF19.37
aF17.09
aF17.09
aF17.09
aF17.09
aF19.37
aF17.09
aF17.09
aF17.09
aatp5
.