(VIowa
p0
(lp1
(lp2
F4.89
aF5.4
aF4.89
aF4.89
aF5.4
aF4.89
aF4.89
aF4.89
aF4.89
aF4.89
aF4.89
aF4.89
aa(lp3
F12.23
aF12.23
aF12.23
aF12.23
aF12.23
aF12.23
aF12.23
aF12.23
aF12.23
aF12.23
aF13.25
aF13.25
aF13.25
aF12.23
aF12.23
aF12.23
aF12.23
aF12.23
aF12.23
aF13.25
aF13.25
aF13.25
aF12.23
aF12.23
aF12.23
aF12.23
aF12.23
aF12.23
aF12.23
aF12.23
aF12.23
aF12.23
aF12.23
aF12.23
aF12.23
aF12.23
aF12.23
aF12.23
aF12.23
aF12.23
aF12.23
aF12.23
aF12.23
aa(lp4
F15.29
aF15.29
aF15.29
aF15.29
aF15.29
aF15.29
aF15.29
aF15.29
aF15.29
aF15.29
aF15.29
aF15.29
aF15.29
aF15.29
aF15.29
aF16.31
aF18.35
aF16.31
aF16.31
aF16.31
aF15.29
aF17.33
aF15.29
aF15.29
aF15.29
aF15.29
aF17.33
aF15.29
aF15.29
aF15.29
aF16.31
aF18.35
aF16.31
aF16.31
aF16.31
aF15.29
aF17.33
aF15.29
aF15.29
aF15.29
aF15.29
aF17.33
aF15.29
aF15.29
aF15.29
aF15.29
aF17.33
aF15.29
aF15.29
aF15.29
aF15.29
aF17.33
aF15.29
aF15.29
aF15.29
aF15.29
aF17.33
aF15.29
aF15.29
aF15.29
aF15.29
aF17.33
aF15.29
aF15.29
aF15.29
aF15.29
aF17.33
aF15.29
aF15.29
aF15.29
aatp5
.