(VMaryland
p0
(lp1
(lp2
F6.04
aF6.67
aF6.04
aF6.04
aF6.67
aF6.04
aF6.04
aF6.04
aF6.04
aF6.04
aF6.04
aF6.04
aa(lp3
F15.11
aF15.11
aF15.11
aF15.11
aF15.11
aF15.11
aF15.11
aF15.11
aF15.11
aF15.11
aF16.37
aF16.37
aF16.37
aF15.11
aF15.11
aF15.11
aF15.11
aF15.11
aF15.11
aF16.37
aF16.37
aF16.37
aF15.11
aF15.11
aF15.11
aF15.11
aF15.11
aF15.11
aF15.11
aF15.11
aF15.11
aF15.11
aF15.11
aF15.11
aF15.11
aF15.11
aF15.11
aF15.11
aF15.11
aF15.11
aF15.11
aF15.11
aF15.11
aa(lp4
F18.89
aF18.89
aF18.89
aF18.89
aF18.89
aF18.89
aF18.89
aF18.89
aF18.89
aF18.89
aF18.89
aF18.89
aF18.89
aF18.89
aF18.89
aF20.15
aF22.67
aF20.15
aF20.15
aF20.15
aF18.89
aF21.41
aF18.89
aF18.89
aF18.89
aF18.89
aF21.41
aF18.89
aF18.89
aF18.89
aF20.15
aF22.67
aF20.15
aF20.15
aF20.15
aF18.89
aF21.41
aF18.89
aF18.89
aF18.89
aF18.89
aF21.41
aF18.89
aF18.89
aF18.89
aF18.89
aF21.41
aF18.89
aF18.89
aF18.89
aF18.89
aF21.41
aF18.89
aF18.89
aF18.89
aF18.89
aF21.41
aF18.89
aF18.89
aF18.89
aF18.89
aF21.41
aF18.89
aF18.89
aF18.89
aF18.89
aF21.41
aF18.89
aF18.89
aF18.89
aatp5
.