(VAlaska
p0
(lp1
(lp2
F5.84
aF6.45
aF5.84
aF5.84
aF6.45
aF5.84
aF5.84
aF5.84
aF5.84
aF5.84
aF5.84
aF5.84
aa(lp3
F14.63
aF14.63
aF14.63
aF14.63
aF14.63
aF14.63
aF14.63
aF14.63
aF14.63
aF14.63
aF15.85
aF15.85
aF15.85
aF14.63
aF14.63
aF14.63
aF14.63
aF14.63
aF14.63
aF15.85
aF15.85
aF15.85
aF14.63
aF14.63
aF14.63
aF14.63
aF14.63
aF14.63
aF14.63
aF14.63
aF14.63
aF14.63
aF14.63
aF14.63
aF14.63
aF14.63
aF14.63
aF14.63
aF14.63
aF14.63
aF14.63
aF14.63
aF14.63
aa(lp4
F18.29
aF18.29
aF18.29
aF18.29
aF18.29
aF18.29
aF18.29
aF18.29
aF18.29
aF18.29
aF18.29
aF18.29
aF18.29
aF18.29
aF18.29
aF19.51
aF21.95
aF19.51
aF19.51
aF19.51
aF18.29
aF20.73
aF18.29
aF18.29
aF18.29
aF18.29
aF20.73
aF18.29
aF18.29
aF18.29
aF19.51
aF21.95
aF19.51
aF19.51
aF19.51
aF18.29
aF20.73
aF18.29
aF18.29
aF18.29
aF18.29
aF20.73
aF18.29
aF18.29
aF18.29
aF18.29
aF20.73
aF18.29
aF18.29
aF18.29
aF18.29
aF20.73
aF18.29
aF18.29
aF18.29
aF18.29
aF20.73
aF18.29
aF18.29
aF18.29
aF18.29
aF20.73
aF18.29
aF18.29
aF18.29
aF18.29
aF20.73
aF18.29
aF18.29
aF18.29
aatp5
.