(VMichigan
p0
(lp1
(lp2
F5.13
aF5.66
aF5.13
aF5.13
aF5.66
aF5.13
aF5.13
aF5.13
aF5.13
aF5.13
aF5.13
aF5.13
aa(lp3
F12.83
aF12.83
aF12.83
aF12.83
aF12.83
aF12.83
aF12.83
aF12.83
aF12.83
aF12.83
aF13.9
aF13.9
aF13.9
aF12.83
aF12.83
aF12.83
aF12.83
aF12.83
aF12.83
aF13.9
aF13.9
aF13.9
aF12.83
aF12.83
aF12.83
aF12.83
aF12.83
aF12.83
aF12.83
aF12.83
aF12.83
aF12.83
aF12.83
aF12.83
aF12.83
aF12.83
aF12.83
aF12.83
aF12.83
aF12.83
aF12.83
aF12.83
aF12.83
aa(lp4
F16.04
aF16.04
aF16.04
aF16.04
aF16.04
aF16.04
aF16.04
aF16.04
aF16.04
aF16.04
aF16.04
aF16.04
aF16.04
aF16.04
aF16.04
aF17.11
aF19.25
aF17.11
aF17.11
aF17.11
aF16.04
aF18.18
aF16.04
aF16.04
aF16.04
aF16.04
aF18.18
aF16.04
aF16.04
aF16.04
aF17.11
aF19.25
aF17.11
aF17.11
aF17.11
aF16.04
aF18.18
aF16.04
aF16.04
aF16.04
aF16.04
aF18.18
aF16.04
aF16.04
aF16.04
aF16.04
aF18.18
aF16.04
aF16.04
aF16.04
aF16.04
aF18.18
aF16.04
aF16.04
aF16.04
aF16.04
aF18.18
aF16.04
aF16.04
aF16.04
aF16.04
aF18.18
aF16.04
aF16.04
aF16.04
aF16.04
aF18.18
aF16.04
aF16.04
aF16.04
aatp5
.