(VMississippi
p0
(lp1
(lp2
F4.69
aF5.18
aF4.69
aF4.69
aF5.18
aF4.69
aF4.69
aF4.69
aF4.69
aF4.69
aF4.69
aF4.69
aa(lp3
F11.75
aF11.75
aF11.75
aF11.75
aF11.75
aF11.75
aF11.75
aF11.75
aF11.75
aF11.75
aF12.73
aF12.73
aF12.73
aF11.75
aF11.75
aF11.75
aF11.75
aF11.75
aF11.75
aF12.73
aF12.73
aF12.73
aF11.75
aF11.75
aF11.75
aF11.75
aF11.75
aF11.75
aF11.75
aF11.75
aF11.75
aF11.75
aF11.75
aF11.75
aF11.75
aF11.75
aF11.75
aF11.75
aF11.75
aF11.75
aF11.75
aF11.75
aF11.75
aa(lp4
F14.69
aF14.69
aF14.69
aF14.69
aF14.69
aF14.69
aF14.69
aF14.69
aF14.69
aF14.69
aF14.69
aF14.69
aF14.69
aF14.69
aF14.69
aF15.67
aF17.63
aF15.67
aF15.67
aF15.67
aF14.69
aF16.65
aF14.69
aF14.69
aF14.69
aF14.69
aF16.65
aF14.69
aF14.69
aF14.69
aF15.67
aF17.63
aF15.67
aF15.67
aF15.67
aF14.69
aF16.65
aF14.69
aF14.69
aF14.69
aF14.69
aF16.65
aF14.69
aF14.69
aF14.69
aF14.69
aF16.65
aF14.69
aF14.69
aF14.69
aF14.69
aF16.65
aF14.69
aF14.69
aF14.69
aF14.69
aF16.65
aF14.69
aF14.69
aF14.69
aF14.69
aF16.65
aF14.69
aF14.69
aF14.69
aF14.69
aF16.65
aF14.69
aF14.69
aF14.69
aatp5
.