(VArizona
p0
(lp1
(lp2
F5.32
aF5.87
aF5.32
aF5.32
aF5.87
aF5.32
aF5.32
aF5.32
aF5.32
aF5.32
aF5.32
aF5.32
aa(lp3
F13.31
aF13.31
aF13.31
aF13.31
aF13.31
aF13.31
aF13.31
aF13.31
aF13.31
aF13.31
aF14.42
aF14.42
aF14.42
aF13.31
aF13.31
aF13.31
aF13.31
aF13.31
aF13.31
aF14.42
aF14.42
aF14.42
aF13.31
aF13.31
aF13.31
aF13.31
aF13.31
aF13.31
aF13.31
aF13.31
aF13.31
aF13.31
aF13.31
aF13.31
aF13.31
aF13.31
aF13.31
aF13.31
aF13.31
aF13.31
aF13.31
aF13.31
aF13.31
aa(lp4
F16.64
aF16.64
aF16.64
aF16.64
aF16.64
aF16.64
aF16.64
aF16.64
aF16.64
aF16.64
aF16.64
aF16.64
aF16.64
aF16.64
aF16.64
aF17.75
aF19.97
aF17.75
aF17.75
aF17.75
aF16.64
aF18.86
aF16.64
aF16.64
aF16.64
aF16.64
aF18.86
aF16.64
aF16.64
aF16.64
aF17.75
aF19.97
aF17.75
aF17.75
aF17.75
aF16.64
aF18.86
aF16.64
aF16.64
aF16.64
aF16.64
aF18.86
aF16.64
aF16.64
aF16.64
aF16.64
aF18.86
aF16.64
aF16.64
aF16.64
aF16.64
aF18.86
aF16.64
aF16.64
aF16.64
aF16.64
aF18.86
aF16.64
aF16.64
aF16.64
aF16.64
aF18.86
aF16.64
aF16.64
aF16.64
aF16.64
aF18.86
aF16.64
aF16.64
aF16.64
aatp5
.