(VNew Hampshire
p0
(lp1
(lp2
F5.8
aF6.4
aF5.8
aF5.8
aF6.4
aF5.8
aF5.8
aF5.8
aF5.8
aF5.8
aF5.8
aF5.8
aa(lp3
F14.51
aF14.51
aF14.51
aF14.51
aF14.51
aF14.51
aF14.51
aF14.51
aF14.51
aF14.51
aF15.72
aF15.72
aF15.72
aF14.51
aF14.51
aF14.51
aF14.51
aF14.51
aF14.51
aF15.72
aF15.72
aF15.72
aF14.51
aF14.51
aF14.51
aF14.51
aF14.51
aF14.51
aF14.51
aF14.51
aF14.51
aF14.51
aF14.51
aF14.51
aF14.51
aF14.51
aF14.51
aF14.51
aF14.51
aF14.51
aF14.51
aF14.51
aF14.51
aa(lp4
F18.14
aF18.14
aF18.14
aF18.14
aF18.14
aF18.14
aF18.14
aF18.14
aF18.14
aF18.14
aF18.14
aF18.14
aF18.14
aF18.14
aF18.14
aF19.35
aF21.77
aF19.35
aF19.35
aF19.35
aF18.14
aF20.56
aF18.14
aF18.14
aF18.14
aF18.14
aF20.56
aF18.14
aF18.14
aF18.14
aF19.35
aF21.77
aF19.35
aF19.35
aF19.35
aF18.14
aF20.56
aF18.14
aF18.14
aF18.14
aF18.14
aF20.56
aF18.14
aF18.14
aF18.14
aF18.14
aF20.56
aF18.14
aF18.14
aF18.14
aF18.14
aF20.56
aF18.14
aF18.14
aF18.14
aF18.14
aF20.56
aF18.14
aF18.14
aF18.14
aF18.14
aF20.56
aF18.14
aF18.14
aF18.14
aF18.14
aF20.56
aF18.14
aF18.14
aF18.14
aatp5
.