(VArkansas
p0
(lp1
(lp2
F4.74
aF5.24
aF4.74
aF4.74
aF5.24
aF4.74
aF4.74
aF4.74
aF4.74
aF4.74
aF4.74
aF4.74
aa(lp3
F11.87
aF11.87
aF11.87
aF11.87
aF11.87
aF11.87
aF11.87
aF11.87
aF11.87
aF11.87
aF12.86
aF12.86
aF12.86
aF11.87
aF11.87
aF11.87
aF11.87
aF11.87
aF11.87
aF12.86
aF12.86
aF12.86
aF11.87
aF11.87
aF11.87
aF11.87
aF11.87
aF11.87
aF11.87
aF11.87
aF11.87
aF11.87
aF11.87
aF11.87
aF11.87
aF11.87
aF11.87
aF11.87
aF11.87
aF11.87
aF11.87
aF11.87
aF11.87
aa(lp4
F14.84
aF14.84
aF14.84
aF14.84
aF14.84
aF14.84
aF14.84
aF14.84
aF14.84
aF14.84
aF14.84
aF14.84
aF14.84
aF14.84
aF14.84
aF15.83
aF17.81
aF15.83
aF15.83
aF15.83
aF14.84
aF16.82
aF14.84
aF14.84
aF14.84
aF14.84
aF16.82
aF14.84
aF14.84
aF14.84
aF15.83
aF17.81
aF15.83
aF15.83
aF15.83
aF14.84
aF16.82
aF14.84
aF14.84
aF14.84
aF14.84
aF16.82
aF14.84
aF14.84
aF14.84
aF14.84
aF16.82
aF14.84
aF14.84
aF14.84
aF14.84
aF16.82
aF14.84
aF14.84
aF14.84
aF14.84
aF16.82
aF14.84
aF14.84
aF14.84
aF14.84
aF16.82
aF14.84
aF14.84
aF14.84
aF14.84
aF16.82
aF14.84
aF14.84
aF14.84
aatp5
.