(VNew Jersey
p0
(lp1
(lp2
F6.23
aF6.88
aF6.23
aF6.23
aF6.88
aF6.23
aF6.23
aF6.23
aF6.23
aF6.23
aF6.23
aF6.23
aa(lp3
F15.59
aF15.59
aF15.59
aF15.59
aF15.59
aF15.59
aF15.59
aF15.59
aF15.59
aF15.59
aF16.89
aF16.89
aF16.89
aF15.59
aF15.59
aF15.59
aF15.59
aF15.59
aF15.59
aF16.89
aF16.89
aF16.89
aF15.59
aF15.59
aF15.59
aF15.59
aF15.59
aF15.59
aF15.59
aF15.59
aF15.59
aF15.59
aF15.59
aF15.59
aF15.59
aF15.59
aF15.59
aF15.59
aF15.59
aF15.59
aF15.59
aF15.59
aF15.59
aa(lp4
F19.49
aF19.49
aF19.49
aF19.49
aF19.49
aF19.49
aF19.49
aF19.49
aF19.49
aF19.49
aF19.49
aF19.49
aF19.49
aF19.49
aF19.49
aF20.79
aF23.39
aF20.79
aF20.79
aF20.79
aF19.49
aF22.09
aF19.49
aF19.49
aF19.49
aF19.49
aF22.09
aF19.49
aF19.49
aF19.49
aF20.79
aF23.39
aF20.79
aF20.79
aF20.79
aF19.49
aF22.09
aF19.49
aF19.49
aF19.49
aF19.49
aF22.09
aF19.49
aF19.49
aF19.49
aF19.49
aF22.09
aF19.49
aF19.49
aF19.49
aF19.49
aF22.09
aF19.49
aF19.49
aF19.49
aF19.49
aF22.09
aF19.49
aF19.49
aF19.49
aF19.49
aF22.09
aF19.49
aF19.49
aF19.49
aF19.49
aF22.09
aF19.49
aF19.49
aF19.49
aatp5
.