(VNew Mexico
p0
(lp1
(lp2
F5.17
aF5.71
aF5.17
aF5.17
aF5.71
aF5.17
aF5.17
aF5.17
aF5.17
aF5.17
aF5.17
aF5.17
aa(lp3
F12.95
aF12.95
aF12.95
aF12.95
aF12.95
aF12.95
aF12.95
aF12.95
aF12.95
aF12.95
aF14.03
aF14.03
aF14.03
aF12.95
aF12.95
aF12.95
aF12.95
aF12.95
aF12.95
aF14.03
aF14.03
aF14.03
aF12.95
aF12.95
aF12.95
aF12.95
aF12.95
aF12.95
aF12.95
aF12.95
aF12.95
aF12.95
aF12.95
aF12.95
aF12.95
aF12.95
aF12.95
aF12.95
aF12.95
aF12.95
aF12.95
aF12.95
aF12.95
aa(lp4
F16.19
aF16.19
aF16.19
aF16.19
aF16.19
aF16.19
aF16.19
aF16.19
aF16.19
aF16.19
aF16.19
aF16.19
aF16.19
aF16.19
aF16.19
aF17.27
aF19.43
aF17.27
aF17.27
aF17.27
aF16.19
aF18.35
aF16.19
aF16.19
aF16.19
aF16.19
aF18.35
aF16.19
aF16.19
aF16.19
aF17.27
aF19.43
aF17.27
aF17.27
aF17.27
aF16.19
aF18.35
aF16.19
aF16.19
aF16.19
aF16.19
aF18.35
aF16.19
aF16.19
aF16.19
aF16.19
aF18.35
aF16.19
aF16.19
aF16.19
aF16.19
aF18.35
aF16.19
aF16.19
aF16.19
aF16.19
aF18.35
aF16.19
aF16.19
aF16.19
aF16.19
aF18.35
aF16.19
aF16.19
aF16.19
aF16.19
aF18.35
aF16.19
aF16.19
aF16.19
aatp5
.