(VNew York
p0
(lp1
(lp2
F6.27
aF6.93
aF6.27
aF6.27
aF6.93
aF6.27
aF6.27
aF6.27
aF6.27
aF6.27
aF6.27
aF6.27
aa(lp3
F15.71
aF15.71
aF15.71
aF15.71
aF15.71
aF15.71
aF15.71
aF15.71
aF15.71
aF15.71
aF17.02
aF17.02
aF17.02
aF15.71
aF15.71
aF15.71
aF15.71
aF15.71
aF15.71
aF17.02
aF17.02
aF17.02
aF15.71
aF15.71
aF15.71
aF15.71
aF15.71
aF15.71
aF15.71
aF15.71
aF15.71
aF15.71
aF15.71
aF15.71
aF15.71
aF15.71
aF15.71
aF15.71
aF15.71
aF15.71
aF15.71
aF15.71
aF15.71
aa(lp4
F19.64
aF19.64
aF19.64
aF19.64
aF19.64
aF19.64
aF19.64
aF19.64
aF19.64
aF19.64
aF19.64
aF19.64
aF19.64
aF19.64
aF19.64
aF20.95
aF23.57
aF20.95
aF20.95
aF20.95
aF19.64
aF22.26
aF19.64
aF19.64
aF19.64
aF19.64
aF22.26
aF19.64
aF19.64
aF19.64
aF20.95
aF23.57
aF20.95
aF20.95
aF20.95
aF19.64
aF22.26
aF19.64
aF19.64
aF19.64
aF19.64
aF22.26
aF19.64
aF19.64
aF19.64
aF19.64
aF22.26
aF19.64
aF19.64
aF19.64
aF19.64
aF22.26
aF19.64
aF19.64
aF19.64
aF19.64
aF22.26
aF19.64
aF19.64
aF19.64
aF19.64
aF22.26
aF19.64
aF19.64
aF19.64
aF19.64
aF22.26
aF19.64
aF19.64
aF19.64
aatp5
.