(VIndiana
p0
(lp1
(lp2
F4.93
aF5.45
aF4.93
aF4.93
aF5.45
aF4.93
aF4.93
aF4.93
aF4.93
aF4.93
aF4.93
aF4.93
aa(lp3
F12.35
aF12.35
aF12.35
aF12.35
aF12.35
aF12.35
aF12.35
aF12.35
aF12.35
aF12.35
aF13.38
aF13.38
aF13.38
aF12.35
aF12.35
aF12.35
aF12.35
aF12.35
aF12.35
aF13.38
aF13.38
aF13.38
aF12.35
aF12.35
aF12.35
aF12.35
aF12.35
aF12.35
aF12.35
aF12.35
aF12.35
aF12.35
aF12.35
aF12.35
aF12.35
aF12.35
aF12.35
aF12.35
aF12.35
aF12.35
aF12.35
aF12.35
aF12.35
aa(lp4
F15.44
aF15.44
aF15.44
aF15.44
aF15.44
aF15.44
aF15.44
aF15.44
aF15.44
aF15.44
aF15.44
aF15.44
aF15.44
aF15.44
aF15.44
aF16.47
aF18.53
aF16.47
aF16.47
aF16.47
aF15.44
aF17.5
aF15.44
aF15.44
aF15.44
aF15.44
aF17.5
aF15.44
aF15.44
aF15.44
aF16.47
aF18.53
aF16.47
aF16.47
aF16.47
aF15.44
aF17.5
aF15.44
aF15.44
aF15.44
aF15.44
aF17.5
aF15.44
aF15.44
aF15.44
aF15.44
aF17.5
aF15.44
aF15.44
aF15.44
aF15.44
aF17.5
aF15.44
aF15.44
aF15.44
aF15.44
aF17.5
aF15.44
aF15.44
aF15.44
aF15.44
aF17.5
aF15.44
aF15.44
aF15.44
aF15.44
aF17.5
aF15.44
aF15.44
aF15.44
aatp5
.