(VFlorida
p0
(lp1
(lp2
F5.36
aF5.92
aF5.36
aF5.36
aF5.92
aF5.36
aF5.36
aF5.36
aF5.36
aF5.36
aF5.36
aF5.36
aa(lp3
F13.43
aF13.43
aF13.43
aF13.43
aF13.43
aF13.43
aF13.43
aF13.43
aF13.43
aF13.43
aF14.55
aF14.55
aF14.55
aF13.43
aF13.43
aF13.43
aF13.43
aF13.43
aF13.43
aF14.55
aF14.55
aF14.55
aF13.43
aF13.43
aF13.43
aF13.43
aF13.43
aF13.43
aF13.43
aF13.43
aF13.43
aF13.43
aF13.43
aF13.43
aF13.43
aF13.43
aF13.43
aF13.43
aF13.43
aF13.43
aF13.43
aF13.43
aF13.43
aa(lp4
F16.79
aF16.79
aF16.79
aF16.79
aF16.79
aF16.79
aF16.79
aF16.79
aF16.79
aF16.79
aF16.79
aF16.79
aF16.79
aF16.79
aF16.79
aF17.91
aF20.15
aF17.91
aF17.91
aF17.91
aF16.79
aF19.03
aF16.79
aF16.79
aF16.79
aF16.79
aF19.03
aF16.79
aF16.79
aF16.79
aF17.91
aF20.15
aF17.91
aF17.91
aF17.91
aF16.79
aF19.03
aF16.79
aF16.79
aF16.79
aF16.79
aF19.03
aF16.79
aF16.79
aF16.79
aF16.79
aF19.03
aF16.79
aF16.79
aF16.79
aF16.79
aF19.03
aF16.79
aF16.79
aF16.79
aF16.79
aF19.03
aF16.79
aF16.79
aF16.79
aF16.79
aF19.03
aF16.79
aF16.79
aF16.79
aF16.79
aF19.03
aF16.79
aF16.79
aF16.79
aatp5
.