(VCalifornia
p0
(lp1
(lp2
F6.13
aF6.77
aF6.13
aF6.13
aF6.77
aF6.13
aF6.13
aF6.13
aF6.13
aF6.13
aF6.13
aF6.13
aa(lp3
F15.35
aF15.35
aF15.35
aF15.35
aF15.35
aF15.35
aF15.35
aF15.35
aF15.35
aF15.35
aF16.63
aF16.63
aF16.63
aF15.35
aF15.35
aF15.35
aF15.35
aF15.35
aF15.35
aF16.63
aF16.63
aF16.63
aF15.35
aF15.35
aF15.35
aF15.35
aF15.35
aF15.35
aF15.35
aF15.35
aF15.35
aF15.35
aF15.35
aF15.35
aF15.35
aF15.35
aF15.35
aF15.35
aF15.35
aF15.35
aF15.35
aF15.35
aF15.35
aa(lp4
F19.19
aF19.19
aF19.19
aF19.19
aF19.19
aF19.19
aF19.19
aF19.19
aF19.19
aF19.19
aF19.19
aF19.19
aF19.19
aF19.19
aF19.19
aF20.47
aF23.03
aF20.47
aF20.47
aF20.47
aF19.19
aF21.75
aF19.19
aF19.19
aF19.19
aF19.19
aF21.75
aF19.19
aF19.19
aF19.19
aF20.47
aF23.03
aF20.47
aF20.47
aF20.47
aF19.19
aF21.75
aF19.19
aF19.19
aF19.19
aF19.19
aF21.75
aF19.19
aF19.19
aF19.19
aF19.19
aF21.75
aF19.19
aF19.19
aF19.19
aF19.19
aF21.75
aF19.19
aF19.19
aF19.19
aF19.19
aF21.75
aF19.19
aF19.19
aF19.19
aF19.19
aF21.75
aF19.19
aF19.19
aF19.19
aF19.19
aF21.75
aF19.19
aF19.19
aF19.19
aatp5
.