(VTexas
p0
(lp1
(lp2
F5.27
aF5.82
aF5.27
aF5.27
aF5.82
aF5.27
aF5.27
aF5.27
aF5.27
aF5.27
aF5.27
aF5.27
aa(lp3
F13.19
aF13.19
aF13.19
aF13.19
aF13.19
aF13.19
aF13.19
aF13.19
aF13.19
aF13.19
aF14.29
aF14.29
aF14.29
aF13.19
aF13.19
aF13.19
aF13.19
aF13.19
aF13.19
aF14.29
aF14.29
aF14.29
aF13.19
aF13.19
aF13.19
aF13.19
aF13.19
aF13.19
aF13.19
aF13.19
aF13.19
aF13.19
aF13.19
aF13.19
aF13.19
aF13.19
aF13.19
aF13.19
aF13.19
aF13.19
aF13.19
aF13.19
aF13.19
aa(lp4
F16.49
aF16.49
aF16.49
aF16.49
aF16.49
aF16.49
aF16.49
aF16.49
aF16.49
aF16.49
aF16.49
aF16.49
aF16.49
aF16.49
aF16.49
aF17.59
aF19.79
aF17.59
aF17.59
aF17.59
aF16.49
aF18.69
aF16.49
aF16.49
aF16.49
aF16.49
aF18.69
aF16.49
aF16.49
aF16.49
aF17.59
aF19.79
aF17.59
aF17.59
aF17.59
aF16.49
aF18.69
aF16.49
aF16.49
aF16.49
aF16.49
aF18.69
aF16.49
aF16.49
aF16.49
aF16.49
aF18.69
aF16.49
aF16.49
aF16.49
aF16.49
aF18.69
aF16.49
aF16.49
aF16.49
aF16.49
aF18.69
aF16.49
aF16.49
aF16.49
aF16.49
aF18.69
aF16.49
aF16.49
aF16.49
aF16.49
aF18.69
aF16.49
aF16.49
aF16.49
aatp5
.