(VVirginia
p0
(lp1
(lp2
F5.6
aF6.19
aF5.6
aF5.6
aF6.19
aF5.6
aF5.6
aF5.6
aF5.6
aF5.6
aF5.6
aF5.6
aa(lp3
F14.03
aF14.03
aF14.03
aF14.03
aF14.03
aF14.03
aF14.03
aF14.03
aF14.03
aF14.03
aF15.2
aF15.2
aF15.2
aF14.03
aF14.03
aF14.03
aF14.03
aF14.03
aF14.03
aF15.2
aF15.2
aF15.2
aF14.03
aF14.03
aF14.03
aF14.03
aF14.03
aF14.03
aF14.03
aF14.03
aF14.03
aF14.03
aF14.03
aF14.03
aF14.03
aF14.03
aF14.03
aF14.03
aF14.03
aF14.03
aF14.03
aF14.03
aF14.03
aa(lp4
F17.54
aF17.54
aF17.54
aF17.54
aF17.54
aF17.54
aF17.54
aF17.54
aF17.54
aF17.54
aF17.54
aF17.54
aF17.54
aF17.54
aF17.54
aF18.71
aF21.05
aF18.71
aF18.71
aF18.71
aF17.54
aF19.88
aF17.54
aF17.54
aF17.54
aF17.54
aF19.88
aF17.54
aF17.54
aF17.54
aF18.71
aF21.05
aF18.71
aF18.71
aF18.71
aF17.54
aF19.88
aF17.54
aF17.54
aF17.54
aF17.54
aF19.88
aF17.54
aF17.54
aF17.54
aF17.54
aF19.88
aF17.54
aF17.54
aF17.54
aF17.54
aF19.88
aF17.54
aF17.54
aF17.54
aF17.54
aF19.88
aF17.54
aF17.54
aF17.54
aF17.54
aF19.88
aF17.54
aF17.54
aF17.54
aF17.54
aF19.88
aF17.54
aF17.54
aF17.54
aatp5
.