(VKentucky
p0
(lp1
(lp2
F4.84
aF5.34
aF4.84
aF4.84
aF5.34
aF4.84
aF4.84
aF4.84
aF4.84
aF4.84
aF4.84
aF4.84
aa(lp3
F12.11
aF12.11
aF12.11
aF12.11
aF12.11
aF12.11
aF12.11
aF12.11
aF12.11
aF12.11
aF13.12
aF13.12
aF13.12
aF12.11
aF12.11
aF12.11
aF12.11
aF12.11
aF12.11
aF13.12
aF13.12
aF13.12
aF12.11
aF12.11
aF12.11
aF12.11
aF12.11
aF12.11
aF12.11
aF12.11
aF12.11
aF12.11
aF12.11
aF12.11
aF12.11
aF12.11
aF12.11
aF12.11
aF12.11
aF12.11
aF12.11
aF12.11
aF12.11
aa(lp4
F15.14
aF15.14
aF15.14
aF15.14
aF15.14
aF15.14
aF15.14
aF15.14
aF15.14
aF15.14
aF15.14
aF15.14
aF15.14
aF15.14
aF15.14
aF16.15
aF18.17
aF16.15
aF16.15
aF16.15
aF15.14
aF17.16
aF15.14
aF15.14
aF15.14
aF15.14
aF17.16
aF15.14
aF15.14
aF15.14
aF16.15
aF18.17
aF16.15
aF16.15
aF16.15
aF15.14
aF17.16
aF15.14
aF15.14
aF15.14
aF15.14
aF17.16
aF15.14
aF15.14
aF15.14
aF15.14
aF17.16
aF15.14
aF15.14
aF15.14
aF15.14
aF17.16
aF15.14
aF15.14
aF15.14
aF15.14
aF17.16
aF15.14
aF15.14
aF15.14
aF15.14
aF17.16
aF15.14
aF15.14
aF15.14
aF15.14
aF17.16
aF15.14
aF15.14
aF15.14
aatp5
.