(VWisconsin
p0
(lp1
(lp2
F5.03
aF5.55
aF5.03
aF5.03
aF5.55
aF5.03
aF5.03
aF5.03
aF5.03
aF5.03
aF5.03
aF5.03
aa(lp3
F12.59
aF12.59
aF12.59
aF12.59
aF12.59
aF12.59
aF12.59
aF12.59
aF12.59
aF12.59
aF13.64
aF13.64
aF13.64
aF12.59
aF12.59
aF12.59
aF12.59
aF12.59
aF12.59
aF13.64
aF13.64
aF13.64
aF12.59
aF12.59
aF12.59
aF12.59
aF12.59
aF12.59
aF12.59
aF12.59
aF12.59
aF12.59
aF12.59
aF12.59
aF12.59
aF12.59
aF12.59
aF12.59
aF12.59
aF12.59
aF12.59
aF12.59
aF12.59
aa(lp4
F15.74
aF15.74
aF15.74
aF15.74
aF15.74
aF15.74
aF15.74
aF15.74
aF15.74
aF15.74
aF15.74
aF15.74
aF15.74
aF15.74
aF15.74
aF16.79
aF18.89
aF16.79
aF16.79
aF16.79
aF15.74
aF17.84
aF15.74
aF15.74
aF15.74
aF15.74
aF17.84
aF15.74
aF15.74
aF15.74
aF16.79
aF18.89
aF16.79
aF16.79
aF16.79
aF15.74
aF17.84
aF15.74
aF15.74
aF15.74
aF15.74
aF17.84
aF15.74
aF15.74
aF15.74
aF15.74
aF17.84
aF15.74
aF15.74
aF15.74
aF15.74
aF17.84
aF15.74
aF15.74
aF15.74
aF15.74
aF17.84
aF15.74
aF15.74
aF15.74
aF15.74
aF17.84
aF15.74
aF15.74
aF15.74
aF15.74
aF17.84
aF15.74
aF15.74
aF15.74
aatp5
.