(VColorado
p0
(lp1
(lp2
F5.51
aF6.08
aF5.51
aF5.51
aF6.08
aF5.51
aF5.51
aF5.51
aF5.51
aF5.51
aF5.51
aF5.51
aa(lp3
F13.79
aF13.79
aF13.79
aF13.79
aF13.79
aF13.79
aF13.79
aF13.79
aF13.79
aF13.79
aF14.94
aF14.94
aF14.94
aF13.79
aF13.79
aF13.79
aF13.79
aF13.79
aF13.79
aF14.94
aF14.94
aF14.94
aF13.79
aF13.79
aF13.79
aF13.79
aF13.79
aF13.79
aF13.79
aF13.79
aF13.79
aF13.79
aF13.79
aF13.79
aF13.79
aF13.79
aF13.79
aF13.79
aF13.79
aF13.79
aF13.79
aF13.79
aF13.79
aa(lp4
F17.24
aF17.24
aF17.24
aF17.24
aF17.24
aF17.24
aF17.24
aF17.24
aF17.24
aF17.24
aF17.24
aF17.24
aF17.24
aF17.24
aF17.24
aF18.39
aF20.69
aF18.39
aF18.39
aF18.39
aF17.24
aF19.54
aF17.24
aF17.24
aF17.24
aF17.24
aF19.54
aF17.24
aF17.24
aF17.24
aF18.39
aF20.69
aF18.39
aF18.39
aF18.39
aF17.24
aF19.54
aF17.24
aF17.24
aF17.24
aF17.24
aF19.54
aF17.24
aF17.24
aF17.24
aF17.24
aF19.54
aF17.24
aF17.24
aF17.24
aF17.24
aF19.54
aF17.24
aF17.24
aF17.24
aF17.24
aF19.54
aF17.24
aF17.24
aF17.24
aF17.24
aF19.54
aF17.24
aF17.24
aF17.24
aF17.24
aF19.54
aF17.24
aF17.24
aF17.24
aatp5
.