(VWyoming
p0
(lp1
(lp2
F5.22
aF5.77
aF5.22
aF5.22
aF5.77
aF5.22
aF5.22
aF5.22
aF5.22
aF5.22
aF5.22
aF5.22
aa(lp3
F13.07
aF13.07
aF13.07
aF13.07
aF13.07
aF13.07
aF13.07
aF13.07
aF13.07
aF13.07
aF14.16
aF14.16
aF14.16
aF13.07
aF13.07
aF13.07
aF13.07
aF13.07
aF13.07
aF14.16
aF14.16
aF14.16
aF13.07
aF13.07
aF13.07
aF13.07
aF13.07
aF13.07
aF13.07
aF13.07
aF13.07
aF13.07
aF13.07
aF13.07
aF13.07
aF13.07
aF13.07
aF13.07
aF13.07
aF13.07
aF13.07
aF13.07
aF13.07
aa(lp4
F16.34
aF16.34
aF16.34
aF16.34
aF16.34
aF16.34
aF16.34
aF16.34
aF16.34
aF16.34
aF16.34
aF16.34
aF16.34
aF16.34
aF16.34
aF17.43
aF19.61
aF17.43
aF17.43
aF17.43
aF16.34
aF18.52
aF16.34
aF16.34
aF16.34
aF16.34
aF18.52
aF16.34
aF16.34
aF16.34
aF17.43
aF19.61
aF17.43
aF17.43
aF17.43
aF16.34
aF18.52
aF16.34
aF16.34
aF16.34
aF16.34
aF18.52
aF16.34
aF16.34
aF16.34
aF16.34
aF18.52
aF16.34
aF16.34
aF16.34
aF16.34
aF18.52
aF16.34
aF16.34
aF16.34
aF16.34
aF18.52
aF16.34
aF16.34
aF16.34
aF16.34
aF18.52
aF16.34
aF16.34
aF16.34
aF16.34
aF18.52
aF16.34
aF16.34
aF16.34
aatp5
.