(VConnecticut
p0
(lp1
(lp2
F5.94
aF6.56
aF5.94
aF5.94
aF6.56
aF5.94
aF5.94
aF5.94
aF5.94
aF5.94
aF5.94
aF5.94
aa(lp3
F14.87
aF14.87
aF14.87
aF14.87
aF14.87
aF14.87
aF14.87
aF14.87
aF14.87
aF14.87
aF16.11
aF16.11
aF16.11
aF14.87
aF14.87
aF14.87
aF14.87
aF14.87
aF14.87
aF16.11
aF16.11
aF16.11
aF14.87
aF14.87
aF14.87
aF14.87
aF14.87
aF14.87
aF14.87
aF14.87
aF14.87
aF14.87
aF14.87
aF14.87
aF14.87
aF14.87
aF14.87
aF14.87
aF14.87
aF14.87
aF14.87
aF14.87
aF14.87
aa(lp4
F18.59
aF18.59
aF18.59
aF18.59
aF18.59
aF18.59
aF18.59
aF18.59
aF18.59
aF18.59
aF18.59
aF18.59
aF18.59
aF18.59
aF18.59
aF19.83
aF22.31
aF19.83
aF19.83
aF19.83
aF18.59
aF21.07
aF18.59
aF18.59
aF18.59
aF18.59
aF21.07
aF18.59
aF18.59
aF18.59
aF19.83
aF22.31
aF19.83
aF19.83
aF19.83
aF18.59
aF21.07
aF18.59
aF18.59
aF18.59
aF18.59
aF21.07
aF18.59
aF18.59
aF18.59
aF18.59
aF21.07
aF18.59
aF18.59
aF18.59
aF18.59
aF21.07
aF18.59
aF18.59
aF18.59
aF18.59
aF21.07
aF18.59
aF18.59
aF18.59
aF18.59
aF21.07
aF18.59
aF18.59
aF18.59
aF18.59
aF21.07
aF18.59
aF18.59
aF18.59
aatp5
.