(VDelaware
p0
(lp1
(lp2
F5.56
aF6.14
aF5.56
aF5.56
aF6.14
aF5.56
aF5.56
aF5.56
aF5.56
aF5.56
aF5.56
aF5.56
aa(lp3
F13.91
aF13.91
aF13.91
aF13.91
aF13.91
aF13.91
aF13.91
aF13.91
aF13.91
aF13.91
aF15.07
aF15.07
aF15.07
aF13.91
aF13.91
aF13.91
aF13.91
aF13.91
aF13.91
aF15.07
aF15.07
aF15.07
aF13.91
aF13.91
aF13.91
aF13.91
aF13.91
aF13.91
aF13.91
aF13.91
aF13.91
aF13.91
aF13.91
aF13.91
aF13.91
aF13.91
aF13.91
aF13.91
aF13.91
aF13.91
aF13.91
aF13.91
aF13.91
aa(lp4
F17.39
aF17.39
aF17.39
aF17.39
aF17.39
aF17.39
aF17.39
aF17.39
aF17.39
aF17.39
aF17.39
aF17.39
aF17.39
aF17.39
aF17.39
aF18.55
aF20.87
aF18.55
aF18.55
aF18.55
aF17.39
aF19.71
aF17.39
aF17.39
aF17.39
aF17.39
aF19.71
aF17.39
aF17.39
aF17.39
aF18.55
aF20.87
aF18.55
aF18.55
aF18.55
aF17.39
aF19.71
aF17.39
aF17.39
aF17.39
aF17.39
aF19.71
aF17.39
aF17.39
aF17.39
aF17.39
aF19.71
aF17.39
aF17.39
aF17.39
aF17.39
aF19.71
aF17.39
aF17.39
aF17.39
aF17.39
aF19.71
aF17.39
aF17.39
aF17.39
aF17.39
aF19.71
aF17.39
aF17.39
aF17.39
aF17.39
aF19.71
aF17.39
aF17.39
aF17.39
aatp5
.