(VDistrict of Columbia
p0
(lp1
(lp2
F6.42
aF7.09
aF6.42
aF6.42
aF7.09
aF6.42
aF6.42
aF6.42
aF6.42
aF6.42
aF6.42
aF6.42
aa(lp3
F16.07
aF16.07
aF16.07
aF16.07
aF16.07
aF16.07
aF16.07
aF16.07
aF16.07
aF16.07
aF17.41
aF17.41
aF17.41
aF16.07
aF16.07
aF16.07
aF16.07
aF16.07
aF16.07
aF17.41
aF17.41
aF17.41
aF16.07
aF16.07
aF16.07
aF16.07
aF16.07
aF16.07
aF16.07
aF16.07
aF16.07
aF16.07
aF16.07
aF16.07
aF16.07
aF16.07
aF16.07
aF16.07
aF16.07
aF16.07
aF16.07
aF16.07
aF16.07
aa(lp4
F20.09
aF20.09
aF20.09
aF20.09
aF20.09
aF20.09
aF20.09
aF20.09
aF20.09
aF20.09
aF20.09
aF20.09
aF20.09
aF20.09
aF20.09
aF21.43
aF24.11
aF21.43
aF21.43
aF21.43
aF20.09
aF22.77
aF20.09
aF20.09
aF20.09
aF20.09
aF22.77
aF20.09
aF20.09
aF20.09
aF21.43
aF24.11
aF21.43
aF21.43
aF21.43
aF20.09
aF22.77
aF20.09
aF20.09
aF20.09
aF20.09
aF22.77
aF20.09
aF20.09
aF20.09
aF20.09
aF22.77
aF20.09
aF20.09
aF20.09
aF20.09
aF22.77
aF20.09
aF20.09
aF20.09
aF20.09
aF22.77
aF20.09
aF20.09
aF20.09
aF20.09
aF22.77
aF20.09
aF20.09
aF20.09
aF20.09
aF22.77
aF20.09
aF20.09
aF20.09
aatp5
.